
/nfs/pourroy/code/THESE/performance_modelisation/build/assembly:     file format elf64-x86-64


Disassembly of section .init:

0000000000401200 <_init>:
  401200:	48 83 ec 08          	sub    $0x8,%rsp
  401204:	48 8b 05 ed 2d 20 00 	mov    0x202ded(%rip),%rax        # 603ff8 <__gmon_start__>
  40120b:	48 85 c0             	test   %rax,%rax
  40120e:	74 05                	je     401215 <_init+0x15>
  401210:	e8 cb 02 00 00       	callq  4014e0 <.plt.got>
  401215:	48 83 c4 08          	add    $0x8,%rsp
  401219:	c3                   	retq   

Disassembly of section .plt:

0000000000401220 <.plt>:
  401220:	ff 35 e2 2d 20 00    	pushq  0x202de2(%rip)        # 604008 <_GLOBAL_OFFSET_TABLE_+0x8>
  401226:	ff 25 e4 2d 20 00    	jmpq   *0x202de4(%rip)        # 604010 <_GLOBAL_OFFSET_TABLE_+0x10>
  40122c:	0f 1f 40 00          	nopl   0x0(%rax)

0000000000401230 <_ZNSolsEd@plt>:
  401230:	ff 25 e2 2d 20 00    	jmpq   *0x202de2(%rip)        # 604018 <_ZNSolsEd@GLIBCXX_3.4>
  401236:	68 00 00 00 00       	pushq  $0x0
  40123b:	e9 e0 ff ff ff       	jmpq   401220 <.plt>

0000000000401240 <printf@plt>:
  401240:	ff 25 da 2d 20 00    	jmpq   *0x202dda(%rip)        # 604020 <printf@GLIBC_2.2.5>
  401246:	68 01 00 00 00       	pushq  $0x1
  40124b:	e9 d0 ff ff ff       	jmpq   401220 <.plt>

0000000000401250 <_ZNSolsEi@plt>:
  401250:	ff 25 d2 2d 20 00    	jmpq   *0x202dd2(%rip)        # 604028 <_ZNSolsEi@GLIBCXX_3.4>
  401256:	68 02 00 00 00       	pushq  $0x2
  40125b:	e9 c0 ff ff ff       	jmpq   401220 <.plt>

0000000000401260 <_Znam@plt>:
  401260:	ff 25 ca 2d 20 00    	jmpq   *0x202dca(%rip)        # 604030 <_Znam@GLIBCXX_3.4>
  401266:	68 03 00 00 00       	pushq  $0x3
  40126b:	e9 b0 ff ff ff       	jmpq   401220 <.plt>

0000000000401270 <gettimeofday@plt>:
  401270:	ff 25 c2 2d 20 00    	jmpq   *0x202dc2(%rip)        # 604038 <gettimeofday@GLIBC_2.2.5>
  401276:	68 04 00 00 00       	pushq  $0x4
  40127b:	e9 a0 ff ff ff       	jmpq   401220 <.plt>

0000000000401280 <__cxa_rethrow@plt>:
  401280:	ff 25 ba 2d 20 00    	jmpq   *0x202dba(%rip)        # 604040 <__cxa_rethrow@CXXABI_1.3>
  401286:	68 05 00 00 00       	pushq  $0x5
  40128b:	e9 90 ff ff ff       	jmpq   401220 <.plt>

0000000000401290 <_ZNSt8ios_base4InitC1Ev@plt>:
  401290:	ff 25 b2 2d 20 00    	jmpq   *0x202db2(%rip)        # 604048 <_ZNSt8ios_base4InitC1Ev@GLIBCXX_3.4>
  401296:	68 06 00 00 00       	pushq  $0x6
  40129b:	e9 80 ff ff ff       	jmpq   401220 <.plt>

00000000004012a0 <_ZNSs4_Rep10_M_refdataEv@plt>:
  4012a0:	ff 25 aa 2d 20 00    	jmpq   *0x202daa(%rip)        # 604050 <_ZNSs4_Rep10_M_refdataEv@GLIBCXX_3.4>
  4012a6:	68 07 00 00 00       	pushq  $0x7
  4012ab:	e9 70 ff ff ff       	jmpq   401220 <.plt>

00000000004012b0 <__libc_start_main@plt>:
  4012b0:	ff 25 a2 2d 20 00    	jmpq   *0x202da2(%rip)        # 604058 <__libc_start_main@GLIBC_2.2.5>
  4012b6:	68 08 00 00 00       	pushq  $0x8
  4012bb:	e9 60 ff ff ff       	jmpq   401220 <.plt>

00000000004012c0 <_ZNSs4_Rep9_S_createEmmRKSaIcE@plt>:
  4012c0:	ff 25 9a 2d 20 00    	jmpq   *0x202d9a(%rip)        # 604060 <_ZNSs4_Rep9_S_createEmmRKSaIcE@GLIBCXX_3.4>
  4012c6:	68 09 00 00 00       	pushq  $0x9
  4012cb:	e9 50 ff ff ff       	jmpq   401220 <.plt>

00000000004012d0 <__cxa_atexit@plt>:
  4012d0:	ff 25 92 2d 20 00    	jmpq   *0x202d92(%rip)        # 604068 <__cxa_atexit@GLIBC_2.2.5>
  4012d6:	68 0a 00 00 00       	pushq  $0xa
  4012db:	e9 40 ff ff ff       	jmpq   401220 <.plt>

00000000004012e0 <_ZNSs13_S_copy_charsEPcS_S_@plt>:
  4012e0:	ff 25 8a 2d 20 00    	jmpq   *0x202d8a(%rip)        # 604070 <_ZNSs13_S_copy_charsEPcS_S_@GLIBCXX_3.4>
  4012e6:	68 0b 00 00 00       	pushq  $0xb
  4012eb:	e9 30 ff ff ff       	jmpq   401220 <.plt>

00000000004012f0 <sysconf@plt>:
  4012f0:	ff 25 82 2d 20 00    	jmpq   *0x202d82(%rip)        # 604078 <sysconf@GLIBC_2.2.5>
  4012f6:	68 0c 00 00 00       	pushq  $0xc
  4012fb:	e9 20 ff ff ff       	jmpq   401220 <.plt>

0000000000401300 <_ZStlsISt11char_traitsIcEERSt13basic_ostreamIcT_ES5_c@plt>:
  401300:	ff 25 7a 2d 20 00    	jmpq   *0x202d7a(%rip)        # 604080 <_ZStlsISt11char_traitsIcEERSt13basic_ostreamIcT_ES5_c@GLIBCXX_3.4>
  401306:	68 0d 00 00 00       	pushq  $0xd
  40130b:	e9 10 ff ff ff       	jmpq   401220 <.plt>

0000000000401310 <_ZNSt8ios_base4InitD1Ev@plt>:
  401310:	ff 25 72 2d 20 00    	jmpq   *0x202d72(%rip)        # 604088 <_ZNSt8ios_base4InitD1Ev@GLIBCXX_3.4>
  401316:	68 0e 00 00 00       	pushq  $0xe
  40131b:	e9 00 ff ff ff       	jmpq   401220 <.plt>

0000000000401320 <_ZStlsISt11char_traitsIcEERSt13basic_ostreamIcT_ES5_PKc@plt>:
  401320:	ff 25 6a 2d 20 00    	jmpq   *0x202d6a(%rip)        # 604090 <_ZStlsISt11char_traitsIcEERSt13basic_ostreamIcT_ES5_PKc@GLIBCXX_3.4>
  401326:	68 0f 00 00 00       	pushq  $0xf
  40132b:	e9 f0 fe ff ff       	jmpq   401220 <.plt>

0000000000401330 <_ZNSsD1Ev@plt>:
  401330:	ff 25 62 2d 20 00    	jmpq   *0x202d62(%rip)        # 604098 <_ZNSsD1Ev@GLIBCXX_3.4>
  401336:	68 10 00 00 00       	pushq  $0x10
  40133b:	e9 e0 fe ff ff       	jmpq   401220 <.plt>

0000000000401340 <_ZNSs4_Rep10_M_destroyERKSaIcE@plt>:
  401340:	ff 25 5a 2d 20 00    	jmpq   *0x202d5a(%rip)        # 6040a0 <_ZNSs4_Rep10_M_destroyERKSaIcE@GLIBCXX_3.4>
  401346:	68 11 00 00 00       	pushq  $0x11
  40134b:	e9 d0 fe ff ff       	jmpq   401220 <.plt>

0000000000401350 <_ZNSolsEm@plt>:
  401350:	ff 25 52 2d 20 00    	jmpq   *0x202d52(%rip)        # 6040a8 <_ZNSolsEm@GLIBCXX_3.4>
  401356:	68 12 00 00 00       	pushq  $0x12
  40135b:	e9 c0 fe ff ff       	jmpq   401220 <.plt>

0000000000401360 <usleep@plt>:
  401360:	ff 25 4a 2d 20 00    	jmpq   *0x202d4a(%rip)        # 6040b0 <usleep@GLIBC_2.2.5>
  401366:	68 13 00 00 00       	pushq  $0x13
  40136b:	e9 b0 fe ff ff       	jmpq   401220 <.plt>

0000000000401370 <atoi@plt>:
  401370:	ff 25 42 2d 20 00    	jmpq   *0x202d42(%rip)        # 6040b8 <atoi@GLIBC_2.2.5>
  401376:	68 14 00 00 00       	pushq  $0x14
  40137b:	e9 a0 fe ff ff       	jmpq   401220 <.plt>

0000000000401380 <_ZNSt14basic_ofstreamIcSt11char_traitsIcEED1Ev@plt>:
  401380:	ff 25 3a 2d 20 00    	jmpq   *0x202d3a(%rip)        # 6040c0 <_ZNSt14basic_ofstreamIcSt11char_traitsIcEED1Ev@GLIBCXX_3.4>
  401386:	68 15 00 00 00       	pushq  $0x15
  40138b:	e9 90 fe ff ff       	jmpq   401220 <.plt>

0000000000401390 <sched_getaffinity@plt>:
  401390:	ff 25 32 2d 20 00    	jmpq   *0x202d32(%rip)        # 6040c8 <sched_getaffinity@GLIBC_2.3.4>
  401396:	68 16 00 00 00       	pushq  $0x16
  40139b:	e9 80 fe ff ff       	jmpq   401220 <.plt>

00000000004013a0 <_ZNSt14basic_ofstreamIcSt11char_traitsIcEE5closeEv@plt>:
  4013a0:	ff 25 2a 2d 20 00    	jmpq   *0x202d2a(%rip)        # 6040d0 <_ZNSt14basic_ofstreamIcSt11char_traitsIcEE5closeEv@GLIBCXX_3.4>
  4013a6:	68 17 00 00 00       	pushq  $0x17
  4013ab:	e9 70 fe ff ff       	jmpq   401220 <.plt>

00000000004013b0 <vsnprintf@plt>:
  4013b0:	ff 25 22 2d 20 00    	jmpq   *0x202d22(%rip)        # 6040d8 <vsnprintf@GLIBC_2.2.5>
  4013b6:	68 18 00 00 00       	pushq  $0x18
  4013bb:	e9 60 fe ff ff       	jmpq   401220 <.plt>

00000000004013c0 <_ZStlsIcSt11char_traitsIcESaIcEERSt13basic_ostreamIT_T0_ES7_RKSbIS4_S5_T1_E@plt>:
  4013c0:	ff 25 1a 2d 20 00    	jmpq   *0x202d1a(%rip)        # 6040e0 <_ZStlsIcSt11char_traitsIcESaIcEERSt13basic_ostreamIT_T0_ES7_RKSbIS4_S5_T1_E@GLIBCXX_3.4>
  4013c6:	68 19 00 00 00       	pushq  $0x19
  4013cb:	e9 50 fe ff ff       	jmpq   401220 <.plt>

00000000004013d0 <_ZNSaIcED1Ev@plt>:
  4013d0:	ff 25 12 2d 20 00    	jmpq   *0x202d12(%rip)        # 6040e8 <_ZNSaIcED1Ev@GLIBCXX_3.4>
  4013d6:	68 1a 00 00 00       	pushq  $0x1a
  4013db:	e9 40 fe ff ff       	jmpq   401220 <.plt>

00000000004013e0 <_ZSt19__throw_logic_errorPKc@plt>:
  4013e0:	ff 25 0a 2d 20 00    	jmpq   *0x202d0a(%rip)        # 6040f0 <_ZSt19__throw_logic_errorPKc@GLIBCXX_3.4>
  4013e6:	68 1b 00 00 00       	pushq  $0x1b
  4013eb:	e9 30 fe ff ff       	jmpq   401220 <.plt>

00000000004013f0 <_ZSt5flushIcSt11char_traitsIcEERSt13basic_ostreamIT_T0_ES6_@plt>:
  4013f0:	ff 25 02 2d 20 00    	jmpq   *0x202d02(%rip)        # 6040f8 <_ZSt5flushIcSt11char_traitsIcEERSt13basic_ostreamIT_T0_ES6_@GLIBCXX_3.4>
  4013f6:	68 1c 00 00 00       	pushq  $0x1c
  4013fb:	e9 20 fe ff ff       	jmpq   401220 <.plt>

0000000000401400 <_ZNSolsEf@plt>:
  401400:	ff 25 fa 2c 20 00    	jmpq   *0x202cfa(%rip)        # 604100 <_ZNSolsEf@GLIBCXX_3.4>
  401406:	68 1d 00 00 00       	pushq  $0x1d
  40140b:	e9 10 fe ff ff       	jmpq   401220 <.plt>

0000000000401410 <_ZNSolsEPFRSoS_E@plt>:
  401410:	ff 25 f2 2c 20 00    	jmpq   *0x202cf2(%rip)        # 604108 <_ZNSolsEPFRSoS_E@GLIBCXX_3.4>
  401416:	68 1e 00 00 00       	pushq  $0x1e
  40141b:	e9 00 fe ff ff       	jmpq   401220 <.plt>

0000000000401420 <_ZNSt14basic_ofstreamIcSt11char_traitsIcEEC1EPKcSt13_Ios_Openmode@plt>:
  401420:	ff 25 ea 2c 20 00    	jmpq   *0x202cea(%rip)        # 604110 <_ZNSt14basic_ofstreamIcSt11char_traitsIcEEC1EPKcSt13_Ios_Openmode@GLIBCXX_3.4>
  401426:	68 1f 00 00 00       	pushq  $0x1f
  40142b:	e9 f0 fd ff ff       	jmpq   401220 <.plt>

0000000000401430 <__cxa_end_catch@plt>:
  401430:	ff 25 e2 2c 20 00    	jmpq   *0x202ce2(%rip)        # 604118 <__cxa_end_catch@CXXABI_1.3>
  401436:	68 20 00 00 00       	pushq  $0x20
  40143b:	e9 e0 fd ff ff       	jmpq   401220 <.plt>

0000000000401440 <_ZSt4endlIcSt11char_traitsIcEERSt13basic_ostreamIT_T0_ES6_@plt>:
  401440:	ff 25 da 2c 20 00    	jmpq   *0x202cda(%rip)        # 604120 <_ZSt4endlIcSt11char_traitsIcEERSt13basic_ostreamIT_T0_ES6_@GLIBCXX_3.4>
  401446:	68 21 00 00 00       	pushq  $0x21
  40144b:	e9 d0 fd ff ff       	jmpq   401220 <.plt>

0000000000401450 <__cxa_begin_catch@plt>:
  401450:	ff 25 d2 2c 20 00    	jmpq   *0x202cd2(%rip)        # 604128 <__cxa_begin_catch@CXXABI_1.3>
  401456:	68 22 00 00 00       	pushq  $0x22
  40145b:	e9 c0 fd ff ff       	jmpq   401220 <.plt>

0000000000401460 <_ZNSaIcEC1Ev@plt>:
  401460:	ff 25 ca 2c 20 00    	jmpq   *0x202cca(%rip)        # 604130 <_ZNSaIcEC1Ev@GLIBCXX_3.4>
  401466:	68 23 00 00 00       	pushq  $0x23
  40146b:	e9 b0 fd ff ff       	jmpq   401220 <.plt>

0000000000401470 <__gxx_personality_v0@plt>:
  401470:	ff 25 c2 2c 20 00    	jmpq   *0x202cc2(%rip)        # 604138 <__gxx_personality_v0@CXXABI_1.3>
  401476:	68 24 00 00 00       	pushq  $0x24
  40147b:	e9 a0 fd ff ff       	jmpq   401220 <.plt>

0000000000401480 <_ZNSs12_Alloc_hiderC1EPcRKSaIcE@plt>:
  401480:	ff 25 ba 2c 20 00    	jmpq   *0x202cba(%rip)        # 604140 <_ZNSs12_Alloc_hiderC1EPcRKSaIcE@GLIBCXX_3.4>
  401486:	68 25 00 00 00       	pushq  $0x25
  40148b:	e9 90 fd ff ff       	jmpq   401220 <.plt>

0000000000401490 <_Unwind_Resume@plt>:
  401490:	ff 25 b2 2c 20 00    	jmpq   *0x202cb2(%rip)        # 604148 <_Unwind_Resume@GCC_3.0>
  401496:	68 26 00 00 00       	pushq  $0x26
  40149b:	e9 80 fd ff ff       	jmpq   401220 <.plt>

00000000004014a0 <_ZNSs12_S_empty_repEv@plt>:
  4014a0:	ff 25 aa 2c 20 00    	jmpq   *0x202caa(%rip)        # 604150 <_ZNSs12_S_empty_repEv@GLIBCXX_3.4>
  4014a6:	68 27 00 00 00       	pushq  $0x27
  4014ab:	e9 70 fd ff ff       	jmpq   401220 <.plt>

00000000004014b0 <_ZNSs4_Rep26_M_set_length_and_sharableEm@plt>:
  4014b0:	ff 25 a2 2c 20 00    	jmpq   *0x202ca2(%rip)        # 604158 <_ZNSs4_Rep26_M_set_length_and_sharableEm@GLIBCXX_3.4.5>
  4014b6:	68 28 00 00 00       	pushq  $0x28
  4014bb:	e9 60 fd ff ff       	jmpq   401220 <.plt>

00000000004014c0 <sched_setaffinity@plt>:
  4014c0:	ff 25 9a 2c 20 00    	jmpq   *0x202c9a(%rip)        # 604160 <sched_setaffinity@GLIBC_2.3.4>
  4014c6:	68 29 00 00 00       	pushq  $0x29
  4014cb:	e9 50 fd ff ff       	jmpq   401220 <.plt>

00000000004014d0 <_ZStlsIcSt11char_traitsIcEERSt13basic_ostreamIT_T0_ES6_St5_Setw@plt>:
  4014d0:	ff 25 92 2c 20 00    	jmpq   *0x202c92(%rip)        # 604168 <_ZStlsIcSt11char_traitsIcEERSt13basic_ostreamIT_T0_ES6_St5_Setw@GLIBCXX_3.4>
  4014d6:	68 2a 00 00 00       	pushq  $0x2a
  4014db:	e9 40 fd ff ff       	jmpq   401220 <.plt>

Disassembly of section .plt.got:

00000000004014e0 <.plt.got>:
  4014e0:	ff 25 12 2b 20 00    	jmpq   *0x202b12(%rip)        # 603ff8 <__gmon_start__>
  4014e6:	66 90                	xchg   %ax,%ax

Disassembly of section .text:

00000000004014f0 <_start>:
  4014f0:	31 ed                	xor    %ebp,%ebp
  4014f2:	49 89 d1             	mov    %rdx,%r9
  4014f5:	5e                   	pop    %rsi
  4014f6:	48 89 e2             	mov    %rsp,%rdx
  4014f9:	48 83 e4 f0          	and    $0xfffffffffffffff0,%rsp
  4014fd:	50                   	push   %rax
  4014fe:	54                   	push   %rsp
  4014ff:	49 c7 c0 e0 2f 40 00 	mov    $0x402fe0,%r8
  401506:	48 c7 c1 70 2f 40 00 	mov    $0x402f70,%rcx
  40150d:	48 c7 c7 4f 16 40 00 	mov    $0x40164f,%rdi
  401514:	e8 97 fd ff ff       	callq  4012b0 <__libc_start_main@plt>
  401519:	f4                   	hlt    
  40151a:	66 0f 1f 44 00 00    	nopw   0x0(%rax,%rax,1)

0000000000401520 <deregister_tm_clones>:
  401520:	b8 97 41 60 00       	mov    $0x604197,%eax
  401525:	55                   	push   %rbp
  401526:	48 2d 90 41 60 00    	sub    $0x604190,%rax
  40152c:	48 83 f8 0e          	cmp    $0xe,%rax
  401530:	48 89 e5             	mov    %rsp,%rbp
  401533:	77 02                	ja     401537 <deregister_tm_clones+0x17>
  401535:	5d                   	pop    %rbp
  401536:	c3                   	retq   
  401537:	b8 00 00 00 00       	mov    $0x0,%eax
  40153c:	48 85 c0             	test   %rax,%rax
  40153f:	74 f4                	je     401535 <deregister_tm_clones+0x15>
  401541:	5d                   	pop    %rbp
  401542:	bf 90 41 60 00       	mov    $0x604190,%edi
  401547:	ff e0                	jmpq   *%rax
  401549:	0f 1f 80 00 00 00 00 	nopl   0x0(%rax)

0000000000401550 <register_tm_clones>:
  401550:	b8 90 41 60 00       	mov    $0x604190,%eax
  401555:	55                   	push   %rbp
  401556:	48 2d 90 41 60 00    	sub    $0x604190,%rax
  40155c:	48 c1 f8 03          	sar    $0x3,%rax
  401560:	48 89 e5             	mov    %rsp,%rbp
  401563:	48 89 c2             	mov    %rax,%rdx
  401566:	48 c1 ea 3f          	shr    $0x3f,%rdx
  40156a:	48 01 d0             	add    %rdx,%rax
  40156d:	48 d1 f8             	sar    %rax
  401570:	75 02                	jne    401574 <register_tm_clones+0x24>
  401572:	5d                   	pop    %rbp
  401573:	c3                   	retq   
  401574:	ba 00 00 00 00       	mov    $0x0,%edx
  401579:	48 85 d2             	test   %rdx,%rdx
  40157c:	74 f4                	je     401572 <register_tm_clones+0x22>
  40157e:	5d                   	pop    %rbp
  40157f:	48 89 c6             	mov    %rax,%rsi
  401582:	bf 90 41 60 00       	mov    $0x604190,%edi
  401587:	ff e2                	jmpq   *%rdx
  401589:	0f 1f 80 00 00 00 00 	nopl   0x0(%rax)

0000000000401590 <__do_global_dtors_aux>:
  401590:	80 3d 19 2d 20 00 00 	cmpb   $0x0,0x202d19(%rip)        # 6042b0 <completed.6355>
  401597:	75 11                	jne    4015aa <__do_global_dtors_aux+0x1a>
  401599:	55                   	push   %rbp
  40159a:	48 89 e5             	mov    %rsp,%rbp
  40159d:	e8 7e ff ff ff       	callq  401520 <deregister_tm_clones>
  4015a2:	5d                   	pop    %rbp
  4015a3:	c6 05 06 2d 20 00 01 	movb   $0x1,0x202d06(%rip)        # 6042b0 <completed.6355>
  4015aa:	f3 c3                	repz retq 
  4015ac:	0f 1f 40 00          	nopl   0x0(%rax)

00000000004015b0 <frame_dummy>:
  4015b0:	48 83 3d 38 28 20 00 	cmpq   $0x0,0x202838(%rip)        # 603df0 <__JCR_END__>
  4015b7:	00 
  4015b8:	74 1e                	je     4015d8 <frame_dummy+0x28>
  4015ba:	b8 00 00 00 00       	mov    $0x0,%eax
  4015bf:	48 85 c0             	test   %rax,%rax
  4015c2:	74 14                	je     4015d8 <frame_dummy+0x28>
  4015c4:	55                   	push   %rbp
  4015c5:	bf f0 3d 60 00       	mov    $0x603df0,%edi
  4015ca:	48 89 e5             	mov    %rsp,%rbp
  4015cd:	ff d0                	callq  *%rax
  4015cf:	5d                   	pop    %rbp
  4015d0:	e9 7b ff ff ff       	jmpq   401550 <register_tm_clones>
  4015d5:	0f 1f 00             	nopl   (%rax)
  4015d8:	e9 73 ff ff ff       	jmpq   401550 <register_tm_clones>

00000000004015dd <_Z5rdtscv>:
  4015dd:	55                   	push   %rbp
  4015de:	48 89 e5             	mov    %rsp,%rbp
  4015e1:	0f 31                	rdtsc  
  4015e3:	89 45 fc             	mov    %eax,-0x4(%rbp)
  4015e6:	89 55 f8             	mov    %edx,-0x8(%rbp)
  4015e9:	8b 45 f8             	mov    -0x8(%rbp),%eax
  4015ec:	48 c1 e0 20          	shl    $0x20,%rax
  4015f0:	48 89 c2             	mov    %rax,%rdx
  4015f3:	8b 45 fc             	mov    -0x4(%rbp),%eax
  4015f6:	48 09 d0             	or     %rdx,%rax
  4015f9:	5d                   	pop    %rbp
  4015fa:	c3                   	retq   

00000000004015fb <_Z9mygettimev>:
  4015fb:	55                   	push   %rbp
  4015fc:	48 89 e5             	mov    %rsp,%rbp
  4015ff:	48 83 ec 40          	sub    $0x40,%rsp
  401603:	48 8d 55 d0          	lea    -0x30(%rbp),%rdx
  401607:	48 8d 45 e0          	lea    -0x20(%rbp),%rax
  40160b:	48 89 d6             	mov    %rdx,%rsi
  40160e:	48 89 c7             	mov    %rax,%rdi
  401611:	e8 5a fc ff ff       	callq  401270 <gettimeofday@plt>
  401616:	89 45 fc             	mov    %eax,-0x4(%rbp)
  401619:	48 8b 45 e0          	mov    -0x20(%rbp),%rax
  40161d:	f2 48 0f 2a c8       	cvtsi2sd %rax,%xmm1
  401622:	48 8b 45 e8          	mov    -0x18(%rbp),%rax
  401626:	f2 48 0f 2a c0       	cvtsi2sd %rax,%xmm0
  40162b:	f2 0f 10 15 05 1d 00 	movsd  0x1d05(%rip),%xmm2        # 403338 <_ZZL18__gthread_active_pvE20__gthread_active_ptr+0x8>
  401632:	00 
  401633:	f2 0f 59 c2          	mulsd  %xmm2,%xmm0
  401637:	f2 0f 58 c1          	addsd  %xmm1,%xmm0
  40163b:	f2 0f 11 45 c8       	movsd  %xmm0,-0x38(%rbp)
  401640:	48 8b 45 c8          	mov    -0x38(%rbp),%rax
  401644:	48 89 45 c8          	mov    %rax,-0x38(%rbp)
  401648:	f2 0f 10 45 c8       	movsd  -0x38(%rbp),%xmm0
  40164d:	c9                   	leaveq 
  40164e:	c3                   	retq   

000000000040164f <main>:
  40164f:	55                   	push   %rbp
  401650:	48 89 e5             	mov    %rsp,%rbp
  401653:	41 57                	push   %r15
  401655:	41 56                	push   %r14
  401657:	41 55                	push   %r13
  401659:	41 54                	push   %r12
  40165b:	53                   	push   %rbx
  40165c:	48 81 ec 98 03 00 00 	sub    $0x398,%rsp
  401663:	89 bd 5c fc ff ff    	mov    %edi,-0x3a4(%rbp)
  401669:	48 89 b5 50 fc ff ff 	mov    %rsi,-0x3b0(%rbp)
  401670:	48 c7 45 80 00 00 00 	movq   $0x0,-0x80(%rbp)
  401677:	00 
  401678:	b8 00 00 00 00       	mov    $0x0,%eax
  40167d:	48 89 85 78 ff ff ff 	mov    %rax,-0x88(%rbp)
  401684:	8b 05 ea 2a 20 00    	mov    0x202aea(%rip),%eax        # 604174 <NB_lOOP>
  40168a:	48 63 d8             	movslq %eax,%rbx
  40168d:	48 b8 00 00 00 00 00 	movabs $0x7f0000000000000,%rax
  401694:	00 f0 07 
  401697:	48 39 c3             	cmp    %rax,%rbx
  40169a:	77 09                	ja     4016a5 <main+0x56>
  40169c:	48 89 d8             	mov    %rbx,%rax
  40169f:	48 c1 e0 04          	shl    $0x4,%rax
  4016a3:	eb 07                	jmp    4016ac <main+0x5d>
  4016a5:	48 c7 c0 ff ff ff ff 	mov    $0xffffffffffffffff,%rax
  4016ac:	48 89 c7             	mov    %rax,%rdi
  4016af:	e8 ac fb ff ff       	callq  401260 <_Znam@plt>
  4016b4:	49 89 c5             	mov    %rax,%r13
  4016b7:	4c 89 e8             	mov    %r13,%rax
  4016ba:	48 8d 53 ff          	lea    -0x1(%rbx),%rdx
  4016be:	48 89 d3             	mov    %rdx,%rbx
  4016c1:	49 89 c4             	mov    %rax,%r12
  4016c4:	eb 10                	jmp    4016d6 <main+0x87>
  4016c6:	4c 89 e7             	mov    %r12,%rdi
  4016c9:	e8 62 13 00 00       	callq  402a30 <_ZNSt4pairIidEC1Ev>
  4016ce:	49 83 c4 10          	add    $0x10,%r12
  4016d2:	48 83 eb 01          	sub    $0x1,%rbx
  4016d6:	48 83 fb ff          	cmp    $0xffffffffffffffff,%rbx
  4016da:	75 ea                	jne    4016c6 <main+0x77>
  4016dc:	4c 89 ad 70 ff ff ff 	mov    %r13,-0x90(%rbp)
  4016e3:	8b 05 57 1c 00 00    	mov    0x1c57(%rip),%eax        # 403340 <_ZZL18__gthread_active_pvE20__gthread_active_ptr+0x10>
  4016e9:	89 85 6c ff ff ff    	mov    %eax,-0x94(%rbp)
  4016ef:	be 03 00 00 00       	mov    $0x3,%esi
  4016f4:	bf a8 41 60 00       	mov    $0x6041a8,%edi
  4016f9:	e8 fc 12 00 00       	callq  4029fa <_ZNSt8ios_base9precisionEl>
  4016fe:	8b 05 b4 2b 20 00    	mov    0x202bb4(%rip),%eax        # 6042b8 <CPU_BIND>
  401704:	89 85 68 ff ff ff    	mov    %eax,-0x98(%rbp)
  40170a:	48 8d 85 60 fc ff ff 	lea    -0x3a0(%rbp),%rax
  401711:	48 89 c6             	mov    %rax,%rsi
  401714:	b8 00 00 00 00       	mov    $0x0,%eax
  401719:	ba 10 00 00 00       	mov    $0x10,%edx
  40171e:	48 89 f7             	mov    %rsi,%rdi
  401721:	48 89 d1             	mov    %rdx,%rcx
  401724:	f3 48 ab             	rep stos %rax,%es:(%rdi)
  401727:	83 bd 5c fc ff ff 01 	cmpl   $0x1,-0x3a4(%rbp)
  40172e:	7e 31                	jle    401761 <main+0x112>
  401730:	48 8b 85 50 fc ff ff 	mov    -0x3b0(%rbp),%rax
  401737:	48 05 00 10 00 00    	add    $0x1000,%rax
  40173d:	48 8b 00             	mov    (%rax),%rax
  401740:	48 85 c0             	test   %rax,%rax
  401743:	74 1c                	je     401761 <main+0x112>
  401745:	48 8b 85 50 fc ff ff 	mov    -0x3b0(%rbp),%rax
  40174c:	48 83 c0 08          	add    $0x8,%rax
  401750:	48 8b 00             	mov    (%rax),%rax
  401753:	48 89 c7             	mov    %rax,%rdi
  401756:	e8 15 fc ff ff       	callq  401370 <atoi@plt>
  40175b:	89 05 57 2b 20 00    	mov    %eax,0x202b57(%rip)        # 6042b8 <CPU_BIND>
  401761:	8b 05 51 2b 20 00    	mov    0x202b51(%rip),%eax        # 6042b8 <CPU_BIND>
  401767:	48 98                	cltq   
  401769:	48 89 85 60 ff ff ff 	mov    %rax,-0xa0(%rbp)
  401770:	b8 00 04 00 00       	mov    $0x400,%eax
  401775:	48 3b 85 60 ff ff ff 	cmp    -0xa0(%rbp),%rax
  40177c:	76 4e                	jbe    4017cc <main+0x17d>
  40177e:	b9 40 00 00 00       	mov    $0x40,%ecx
  401783:	48 8b 85 60 ff ff ff 	mov    -0xa0(%rbp),%rax
  40178a:	ba 00 00 00 00       	mov    $0x0,%edx
  40178f:	48 f7 f1             	div    %rcx
  401792:	48 89 c6             	mov    %rax,%rsi
  401795:	48 8b bc f5 60 fc ff 	mov    -0x3a0(%rbp,%rsi,8),%rdi
  40179c:	ff 
  40179d:	b9 40 00 00 00       	mov    $0x40,%ecx
  4017a2:	48 8b 85 60 ff ff ff 	mov    -0xa0(%rbp),%rax
  4017a9:	ba 00 00 00 00       	mov    $0x0,%edx
  4017ae:	48 f7 f1             	div    %rcx
  4017b1:	48 89 d0             	mov    %rdx,%rax
  4017b4:	ba 01 00 00 00       	mov    $0x1,%edx
  4017b9:	89 c1                	mov    %eax,%ecx
  4017bb:	48 d3 e2             	shl    %cl,%rdx
  4017be:	48 89 d0             	mov    %rdx,%rax
  4017c1:	48 09 f8             	or     %rdi,%rax
  4017c4:	48 89 84 f5 60 fc ff 	mov    %rax,-0x3a0(%rbp,%rsi,8)
  4017cb:	ff 
  4017cc:	48 8d 85 60 fc ff ff 	lea    -0x3a0(%rbp),%rax
  4017d3:	48 89 c2             	mov    %rax,%rdx
  4017d6:	be 80 00 00 00       	mov    $0x80,%esi
  4017db:	bf 00 00 00 00       	mov    $0x0,%edi
  4017e0:	e8 db fc ff ff       	callq  4014c0 <sched_setaffinity@plt>
  4017e5:	48 8d 85 60 fc ff ff 	lea    -0x3a0(%rbp),%rax
  4017ec:	48 89 c2             	mov    %rax,%rdx
  4017ef:	be 80 00 00 00       	mov    $0x80,%esi
  4017f4:	bf 00 00 00 00       	mov    $0x0,%edi
  4017f9:	e8 92 fb ff ff       	callq  401390 <sched_getaffinity@plt>
  4017fe:	c7 45 b4 00 00 00 00 	movl   $0x0,-0x4c(%rbp)
  401805:	e9 96 00 00 00       	jmpq   4018a0 <main+0x251>
  40180a:	8b 45 b4             	mov    -0x4c(%rbp),%eax
  40180d:	48 98                	cltq   
  40180f:	48 89 85 58 ff ff ff 	mov    %rax,-0xa8(%rbp)
  401816:	b8 00 04 00 00       	mov    $0x400,%eax
  40181b:	48 3b 85 58 ff ff ff 	cmp    -0xa8(%rbp),%rax
  401822:	76 56                	jbe    40187a <main+0x22b>
  401824:	b9 40 00 00 00       	mov    $0x40,%ecx
  401829:	48 8b 85 58 ff ff ff 	mov    -0xa8(%rbp),%rax
  401830:	ba 00 00 00 00       	mov    $0x0,%edx
  401835:	48 f7 f1             	div    %rcx
  401838:	48 89 c2             	mov    %rax,%rdx
  40183b:	48 8d 85 60 fc ff ff 	lea    -0x3a0(%rbp),%rax
  401842:	48 c1 e2 03          	shl    $0x3,%rdx
  401846:	48 01 d0             	add    %rdx,%rax
  401849:	48 8b 30             	mov    (%rax),%rsi
  40184c:	b9 40 00 00 00       	mov    $0x40,%ecx
  401851:	48 8b 85 58 ff ff ff 	mov    -0xa8(%rbp),%rax
  401858:	ba 00 00 00 00       	mov    $0x0,%edx
  40185d:	48 f7 f1             	div    %rcx
  401860:	48 89 d0             	mov    %rdx,%rax
  401863:	89 c1                	mov    %eax,%ecx
  401865:	48 d3 ee             	shr    %cl,%rsi
  401868:	48 89 f0             	mov    %rsi,%rax
  40186b:	83 e0 01             	and    $0x1,%eax
  40186e:	48 85 c0             	test   %rax,%rax
  401871:	74 07                	je     40187a <main+0x22b>
  401873:	b8 01 00 00 00       	mov    $0x1,%eax
  401878:	eb 05                	jmp    40187f <main+0x230>
  40187a:	b8 00 00 00 00       	mov    $0x0,%eax
  40187f:	85 c0                	test   %eax,%eax
  401881:	0f 95 c0             	setne  %al
  401884:	84 c0                	test   %al,%al
  401886:	74 14                	je     40189c <main+0x24d>
  401888:	8b 45 b4             	mov    -0x4c(%rbp),%eax
  40188b:	89 c6                	mov    %eax,%esi
  40188d:	bf 04 30 40 00       	mov    $0x403004,%edi
  401892:	b8 00 00 00 00       	mov    $0x0,%eax
  401897:	e8 a4 f9 ff ff       	callq  401240 <printf@plt>
  40189c:	83 45 b4 01          	addl   $0x1,-0x4c(%rbp)
  4018a0:	8b 45 b4             	mov    -0x4c(%rbp),%eax
  4018a3:	48 63 d8             	movslq %eax,%rbx
  4018a6:	bf 53 00 00 00       	mov    $0x53,%edi
  4018ab:	e8 40 fa ff ff       	callq  4012f0 <sysconf@plt>
  4018b0:	48 39 c3             	cmp    %rax,%rbx
  4018b3:	0f 9c c0             	setl   %al
  4018b6:	84 c0                	test   %al,%al
  4018b8:	0f 85 4c ff ff ff    	jne    40180a <main+0x1bb>
  4018be:	c7 45 b4 00 00 00 00 	movl   $0x0,-0x4c(%rbp)
  4018c5:	e9 2d 02 00 00       	jmpq   401af7 <myBench+0x200>
  4018ca:	e8 2c fd ff ff       	callq  4015fb <_Z9mygettimev>
  4018cf:	f2 0f 11 85 48 fc ff 	movsd  %xmm0,-0x3b8(%rbp)
  4018d6:	ff 
  4018d7:	48 8b 85 48 fc ff ff 	mov    -0x3b8(%rbp),%rax
  4018de:	48 89 85 50 ff ff ff 	mov    %rax,-0xb0(%rbp)
  4018e5:	e8 f3 fc ff ff       	callq  4015dd <_Z5rdtscv>
  4018ea:	48 89 85 48 ff ff ff 	mov    %rax,-0xb8(%rbp)
  4018f1:	8b 05 81 28 20 00    	mov    0x202881(%rip),%eax        # 604178 <NB_lOOP_IN>

00000000004018f7 <myBench>:
  4018f7:	62 f2 f5 48 b8 d0    	vfmadd231pd %zmm0,%zmm1,%zmm2
  4018fd:	62 f2 f5 48 b8 d8    	vfmadd231pd %zmm0,%zmm1,%zmm3
  401903:	62 f2 f5 48 b8 e0    	vfmadd231pd %zmm0,%zmm1,%zmm4
  401909:	62 f2 f5 48 b8 e8    	vfmadd231pd %zmm0,%zmm1,%zmm5
  40190f:	62 f2 f5 48 b8 d0    	vfmadd231pd %zmm0,%zmm1,%zmm2
  401915:	62 f2 f5 48 b8 d8    	vfmadd231pd %zmm0,%zmm1,%zmm3
  40191b:	62 f2 f5 48 b8 e0    	vfmadd231pd %zmm0,%zmm1,%zmm4
  401921:	62 f2 f5 48 b8 e8    	vfmadd231pd %zmm0,%zmm1,%zmm5
  401927:	62 f2 f5 48 b8 d0    	vfmadd231pd %zmm0,%zmm1,%zmm2
  40192d:	62 f2 f5 48 b8 d8    	vfmadd231pd %zmm0,%zmm1,%zmm3
  401933:	62 f2 f5 48 b8 e0    	vfmadd231pd %zmm0,%zmm1,%zmm4
  401939:	62 f2 f5 48 b8 e8    	vfmadd231pd %zmm0,%zmm1,%zmm5
  40193f:	62 f2 f5 48 b8 d0    	vfmadd231pd %zmm0,%zmm1,%zmm2
  401945:	62 f2 f5 48 b8 d8    	vfmadd231pd %zmm0,%zmm1,%zmm3
  40194b:	62 f2 f5 48 b8 e0    	vfmadd231pd %zmm0,%zmm1,%zmm4
  401951:	62 f2 f5 48 b8 e8    	vfmadd231pd %zmm0,%zmm1,%zmm5
  401957:	62 f2 f5 48 b8 d0    	vfmadd231pd %zmm0,%zmm1,%zmm2
  40195d:	62 f2 f5 48 b8 d8    	vfmadd231pd %zmm0,%zmm1,%zmm3
  401963:	62 f2 f5 48 b8 e0    	vfmadd231pd %zmm0,%zmm1,%zmm4
  401969:	62 f2 f5 48 b8 e8    	vfmadd231pd %zmm0,%zmm1,%zmm5
  40196f:	62 f2 f5 48 b8 d0    	vfmadd231pd %zmm0,%zmm1,%zmm2
  401975:	62 f2 f5 48 b8 d8    	vfmadd231pd %zmm0,%zmm1,%zmm3
  40197b:	62 f2 f5 48 b8 e0    	vfmadd231pd %zmm0,%zmm1,%zmm4
  401981:	62 f2 f5 48 b8 e8    	vfmadd231pd %zmm0,%zmm1,%zmm5
  401987:	62 f2 f5 48 b8 d0    	vfmadd231pd %zmm0,%zmm1,%zmm2
  40198d:	62 f2 f5 48 b8 d8    	vfmadd231pd %zmm0,%zmm1,%zmm3
  401993:	62 f2 f5 48 b8 e0    	vfmadd231pd %zmm0,%zmm1,%zmm4
  401999:	62 f2 f5 48 b8 e8    	vfmadd231pd %zmm0,%zmm1,%zmm5
  40199f:	62 f2 f5 48 b8 d0    	vfmadd231pd %zmm0,%zmm1,%zmm2
  4019a5:	62 f2 f5 48 b8 d8    	vfmadd231pd %zmm0,%zmm1,%zmm3
  4019ab:	62 f2 f5 48 b8 e0    	vfmadd231pd %zmm0,%zmm1,%zmm4
  4019b1:	62 f2 f5 48 b8 e8    	vfmadd231pd %zmm0,%zmm1,%zmm5
  4019b7:	62 f2 f5 48 b8 d0    	vfmadd231pd %zmm0,%zmm1,%zmm2
  4019bd:	62 f2 f5 48 b8 d8    	vfmadd231pd %zmm0,%zmm1,%zmm3
  4019c3:	62 f2 f5 48 b8 e0    	vfmadd231pd %zmm0,%zmm1,%zmm4
  4019c9:	62 f2 f5 48 b8 e8    	vfmadd231pd %zmm0,%zmm1,%zmm5
  4019cf:	62 f2 f5 48 b8 d0    	vfmadd231pd %zmm0,%zmm1,%zmm2
  4019d5:	62 f2 f5 48 b8 d8    	vfmadd231pd %zmm0,%zmm1,%zmm3
  4019db:	62 f2 f5 48 b8 e0    	vfmadd231pd %zmm0,%zmm1,%zmm4
  4019e1:	62 f2 f5 48 b8 e8    	vfmadd231pd %zmm0,%zmm1,%zmm5
  4019e7:	83 e8 01             	sub    $0x1,%eax
  4019ea:	0f 85 07 ff ff ff    	jne    4018f7 <myBench>
  4019f0:	48 89 85 40 ff ff ff 	mov    %rax,-0xc0(%rbp)
  4019f7:	e8 e1 fb ff ff       	callq  4015dd <_Z5rdtscv>
  4019fc:	48 89 85 38 ff ff ff 	mov    %rax,-0xc8(%rbp)
  401a03:	e8 f3 fb ff ff       	callq  4015fb <_Z9mygettimev>
  401a08:	f2 0f 11 85 48 fc ff 	movsd  %xmm0,-0x3b8(%rbp)
  401a0f:	ff 
  401a10:	48 8b 85 48 fc ff ff 	mov    -0x3b8(%rbp),%rax
  401a17:	48 89 85 30 ff ff ff 	mov    %rax,-0xd0(%rbp)
  401a1e:	f2 0f 10 85 30 ff ff 	movsd  -0xd0(%rbp),%xmm0
  401a25:	ff 
  401a26:	f2 0f 5c 85 50 ff ff 	subsd  -0xb0(%rbp),%xmm0
  401a2d:	ff 
  401a2e:	f2 0f 11 85 f0 fe ff 	movsd  %xmm0,-0x110(%rbp)
  401a35:	ff 
  401a36:	48 8b 85 48 ff ff ff 	mov    -0xb8(%rbp),%rax
  401a3d:	48 8b 95 38 ff ff ff 	mov    -0xc8(%rbp),%rdx
  401a44:	48 29 c2             	sub    %rax,%rdx
  401a47:	48 89 d0             	mov    %rdx,%rax
  401a4a:	48 89 85 f8 fe ff ff 	mov    %rax,-0x108(%rbp)
  401a51:	48 8d 95 f0 fe ff ff 	lea    -0x110(%rbp),%rdx
  401a58:	48 8d 85 f8 fe ff ff 	lea    -0x108(%rbp),%rax
  401a5f:	48 89 d6             	mov    %rdx,%rsi
  401a62:	48 89 c7             	mov    %rax,%rdi
  401a65:	e8 47 10 00 00       	callq  402ab1 <_ZSt9make_pairIydESt4pairINSt17__decay_and_stripIT_E6__typeENS1_IT0_E6__typeEEOS2_OS5_>
  401a6a:	48 89 c2             	mov    %rax,%rdx
  401a6d:	f2 0f 11 85 48 fc ff 	movsd  %xmm0,-0x3b8(%rbp)
  401a74:	ff 
  401a75:	48 8b 85 48 fc ff ff 	mov    -0x3b8(%rbp),%rax
  401a7c:	48 89 95 e0 fe ff ff 	mov    %rdx,-0x120(%rbp)
  401a83:	48 89 85 e8 fe ff ff 	mov    %rax,-0x118(%rbp)
  401a8a:	8b 45 b4             	mov    -0x4c(%rbp),%eax
  401a8d:	48 98                	cltq   
  401a8f:	48 c1 e0 04          	shl    $0x4,%rax
  401a93:	48 89 c2             	mov    %rax,%rdx
  401a96:	48 8b 85 70 ff ff ff 	mov    -0x90(%rbp),%rax
  401a9d:	48 01 c2             	add    %rax,%rdx
  401aa0:	48 8d 85 e0 fe ff ff 	lea    -0x120(%rbp),%rax
  401aa7:	48 89 c6             	mov    %rax,%rsi
  401aaa:	48 89 d7             	mov    %rdx,%rdi
  401aad:	e8 d8 11 00 00       	callq  402c8a <_ZNSt4pairIidEaSIydEERS0_OS_IT_T0_E>
  401ab2:	48 8b 85 48 ff ff ff 	mov    -0xb8(%rbp),%rax
  401ab9:	48 8b 95 38 ff ff ff 	mov    -0xc8(%rbp),%rdx
  401ac0:	48 29 c2             	sub    %rax,%rdx
  401ac3:	48 89 d0             	mov    %rdx,%rax
  401ac6:	48 01 45 c8          	add    %rax,-0x38(%rbp)
  401aca:	f2 0f 10 85 30 ff ff 	movsd  -0xd0(%rbp),%xmm0
  401ad1:	ff 
  401ad2:	f2 0f 5c 85 50 ff ff 	subsd  -0xb0(%rbp),%xmm0
  401ad9:	ff 
  401ada:	f2 0f 10 4d a8       	movsd  -0x58(%rbp),%xmm1
  401adf:	f2 0f 58 c1          	addsd  %xmm1,%xmm0
  401ae3:	f2 0f 11 45 a8       	movsd  %xmm0,-0x58(%rbp)
  401ae8:	48 8b 85 40 ff ff ff 	mov    -0xc0(%rbp),%rax
  401aef:	48 01 45 c0          	add    %rax,-0x40(%rbp)
  401af3:	83 45 b4 01          	addl   $0x1,-0x4c(%rbp)
  401af7:	8b 05 77 26 20 00    	mov    0x202677(%rip),%eax        # 604174 <NB_lOOP>
  401afd:	39 45 b4             	cmp    %eax,-0x4c(%rbp)
  401b00:	0f 8c c4 fd ff ff    	jl     4018ca <main+0x27b>
  401b06:	48 8d 85 e0 fc ff ff 	lea    -0x320(%rbp),%rax
  401b0d:	ba 04 00 00 00       	mov    $0x4,%edx
  401b12:	be 20 30 40 00       	mov    $0x403020,%esi
  401b17:	48 89 c7             	mov    %rax,%rdi
  401b1a:	e8 01 f9 ff ff       	callq  401420 <_ZNSt14basic_ofstreamIcSt11char_traitsIcEEC1EPKcSt13_Ios_Openmode@plt>
  401b1f:	8b 05 57 26 20 00    	mov    0x202657(%rip),%eax        # 60417c <NB_INST>
  401b25:	48 63 d0             	movslq %eax,%rdx
  401b28:	8b 05 52 26 20 00    	mov    0x202652(%rip),%eax        # 604180 <P_UNROLLING>
  401b2e:	48 98                	cltq   
  401b30:	48 0f af c2          	imul   %rdx,%rax
  401b34:	48 89 85 28 ff ff ff 	mov    %rax,-0xd8(%rbp)
  401b3b:	8b 05 37 26 20 00    	mov    0x202637(%rip),%eax        # 604178 <NB_lOOP_IN>
  401b41:	48 63 d0             	movslq %eax,%rdx
  401b44:	8b 05 2a 26 20 00    	mov    0x20262a(%rip),%eax        # 604174 <NB_lOOP>
  401b4a:	48 98                	cltq   
  401b4c:	48 0f af c2          	imul   %rdx,%rax
  401b50:	48 89 45 80          	mov    %rax,-0x80(%rbp)
  401b54:	48 8b 45 80          	mov    -0x80(%rbp),%rax
  401b58:	48 0f af 85 28 ff ff 	imul   -0xd8(%rbp),%rax
  401b5f:	ff 
  401b60:	48 89 85 20 ff ff ff 	mov    %rax,-0xe0(%rbp)
  401b67:	48 8b 85 20 ff ff ff 	mov    -0xe0(%rbp),%rax
  401b6e:	48 85 c0             	test   %rax,%rax
  401b71:	78 07                	js     401b7a <myBench+0x283>
  401b73:	f2 48 0f 2a c0       	cvtsi2sd %rax,%xmm0
  401b78:	eb 15                	jmp    401b8f <myBench+0x298>
  401b7a:	48 89 c2             	mov    %rax,%rdx
  401b7d:	48 d1 ea             	shr    %rdx
  401b80:	83 e0 01             	and    $0x1,%eax
  401b83:	48 09 c2             	or     %rax,%rdx
  401b86:	f2 48 0f 2a c2       	cvtsi2sd %rdx,%xmm0
  401b8b:	f2 0f 58 c0          	addsd  %xmm0,%xmm0
  401b8f:	48 8b 45 c8          	mov    -0x38(%rbp),%rax
  401b93:	48 85 c0             	test   %rax,%rax
  401b96:	78 07                	js     401b9f <myBench+0x2a8>
  401b98:	f2 48 0f 2a c8       	cvtsi2sd %rax,%xmm1
  401b9d:	eb 15                	jmp    401bb4 <myBench+0x2bd>
  401b9f:	48 89 c2             	mov    %rax,%rdx
  401ba2:	48 d1 ea             	shr    %rdx
  401ba5:	83 e0 01             	and    $0x1,%eax
  401ba8:	48 09 c2             	or     %rax,%rdx
  401bab:	f2 48 0f 2a ca       	cvtsi2sd %rdx,%xmm1
  401bb0:	f2 0f 58 c9          	addsd  %xmm1,%xmm1
  401bb4:	f2 0f 5e c1          	divsd  %xmm1,%xmm0
  401bb8:	f2 0f 11 45 b8       	movsd  %xmm0,-0x48(%rbp)
  401bbd:	48 8b 45 c8          	mov    -0x38(%rbp),%rax
  401bc1:	48 85 c0             	test   %rax,%rax
  401bc4:	78 07                	js     401bcd <myBench+0x2d6>
  401bc6:	f2 48 0f 2a c0       	cvtsi2sd %rax,%xmm0
  401bcb:	eb 15                	jmp    401be2 <myBench+0x2eb>
  401bcd:	48 89 c2             	mov    %rax,%rdx
  401bd0:	48 d1 ea             	shr    %rdx
  401bd3:	83 e0 01             	and    $0x1,%eax
  401bd6:	48 09 c2             	or     %rax,%rdx
  401bd9:	f2 48 0f 2a c2       	cvtsi2sd %rdx,%xmm0
  401bde:	f2 0f 58 c0          	addsd  %xmm0,%xmm0
  401be2:	f2 0f 5e 45 a8       	divsd  -0x58(%rbp),%xmm0
  401be7:	f2 0f 10 0d 59 17 00 	movsd  0x1759(%rip),%xmm1        # 403348 <_ZZL18__gthread_active_pvE20__gthread_active_ptr+0x18>
  401bee:	00 
  401bef:	f2 0f 5e c1          	divsd  %xmm1,%xmm0
  401bf3:	f2 0f 11 45 90       	movsd  %xmm0,-0x70(%rbp)
  401bf8:	8b 05 be 26 20 00    	mov    0x2026be(%rip),%eax        # 6042bc <FLOP_SP_PER_LOOP>
  401bfe:	48 98                	cltq   
  401c00:	48 0f af 45 80       	imul   -0x80(%rbp),%rax
  401c05:	48 85 c0             	test   %rax,%rax
  401c08:	78 07                	js     401c11 <myBench+0x31a>
  401c0a:	f3 48 0f 2a c0       	cvtsi2ss %rax,%xmm0
  401c0f:	eb 15                	jmp    401c26 <myBench+0x32f>
  401c11:	48 89 c2             	mov    %rax,%rdx
  401c14:	48 d1 ea             	shr    %rdx
  401c17:	83 e0 01             	and    $0x1,%eax
  401c1a:	48 09 c2             	or     %rax,%rdx
  401c1d:	f3 48 0f 2a c2       	cvtsi2ss %rdx,%xmm0
  401c22:	f3 0f 58 c0          	addss  %xmm0,%xmm0
  401c26:	48 8b 45 c8          	mov    -0x38(%rbp),%rax
  401c2a:	48 85 c0             	test   %rax,%rax
  401c2d:	78 07                	js     401c36 <myBench+0x33f>
  401c2f:	f3 48 0f 2a c8       	cvtsi2ss %rax,%xmm1
  401c34:	eb 15                	jmp    401c4b <myBench+0x354>
  401c36:	48 89 c2             	mov    %rax,%rdx
  401c39:	48 d1 ea             	shr    %rdx
  401c3c:	83 e0 01             	and    $0x1,%eax
  401c3f:	48 09 c2             	or     %rax,%rdx
  401c42:	f3 48 0f 2a ca       	cvtsi2ss %rdx,%xmm1
  401c47:	f3 0f 58 c9          	addss  %xmm1,%xmm1
  401c4b:	f3 0f 5e c1          	divss  %xmm1,%xmm0
  401c4f:	0f 14 c0             	unpcklps %xmm0,%xmm0
  401c52:	0f 5a d0             	cvtps2pd %xmm0,%xmm2
  401c55:	f2 0f 11 55 a0       	movsd  %xmm2,-0x60(%rbp)
  401c5a:	8b 05 24 25 20 00    	mov    0x202524(%rip),%eax        # 604184 <FLOP_DP_PER_LOOP>
  401c60:	48 98                	cltq   
  401c62:	48 0f af 45 80       	imul   -0x80(%rbp),%rax
  401c67:	48 85 c0             	test   %rax,%rax
  401c6a:	78 07                	js     401c73 <myBench+0x37c>
  401c6c:	f3 48 0f 2a c0       	cvtsi2ss %rax,%xmm0
  401c71:	eb 15                	jmp    401c88 <myBench+0x391>
  401c73:	48 89 c2             	mov    %rax,%rdx
  401c76:	48 d1 ea             	shr    %rdx
  401c79:	83 e0 01             	and    $0x1,%eax
  401c7c:	48 09 c2             	or     %rax,%rdx
  401c7f:	f3 48 0f 2a c2       	cvtsi2ss %rdx,%xmm0
  401c84:	f3 0f 58 c0          	addss  %xmm0,%xmm0
  401c88:	48 8b 45 c8          	mov    -0x38(%rbp),%rax
  401c8c:	48 85 c0             	test   %rax,%rax
  401c8f:	78 07                	js     401c98 <myBench+0x3a1>
  401c91:	f3 48 0f 2a c8       	cvtsi2ss %rax,%xmm1
  401c96:	eb 15                	jmp    401cad <myBench+0x3b6>
  401c98:	48 89 c2             	mov    %rax,%rdx
  401c9b:	48 d1 ea             	shr    %rdx
  401c9e:	83 e0 01             	and    $0x1,%eax
  401ca1:	48 09 c2             	or     %rax,%rdx
  401ca4:	f3 48 0f 2a ca       	cvtsi2ss %rdx,%xmm1
  401ca9:	f3 0f 58 c9          	addss  %xmm1,%xmm1
  401cad:	f3 0f 5e c1          	divss  %xmm1,%xmm0
  401cb1:	0f 14 c0             	unpcklps %xmm0,%xmm0
  401cb4:	0f 5a d8             	cvtps2pd %xmm0,%xmm3
  401cb7:	f2 0f 11 5d 98       	movsd  %xmm3,-0x68(%rbp)
  401cbc:	f2 0f 10 4d 90       	movsd  -0x70(%rbp),%xmm1
  401cc1:	f2 0f 10 05 7f 16 00 	movsd  0x167f(%rip),%xmm0        # 403348 <_ZZL18__gthread_active_pvE20__gthread_active_ptr+0x18>
  401cc8:	00 
  401cc9:	f2 0f 59 c8          	mulsd  %xmm0,%xmm1
  401ccd:	8b 05 e9 25 20 00    	mov    0x2025e9(%rip),%eax        # 6042bc <FLOP_SP_PER_LOOP>
  401cd3:	48 98                	cltq   
  401cd5:	48 0f af 45 80       	imul   -0x80(%rbp),%rax
  401cda:	48 85 c0             	test   %rax,%rax
  401cdd:	78 07                	js     401ce6 <myBench+0x3ef>
  401cdf:	f3 48 0f 2a c0       	cvtsi2ss %rax,%xmm0
  401ce4:	eb 15                	jmp    401cfb <myBench+0x404>
  401ce6:	48 89 c2             	mov    %rax,%rdx
  401ce9:	48 d1 ea             	shr    %rdx
  401cec:	83 e0 01             	and    $0x1,%eax
  401cef:	48 09 c2             	or     %rax,%rdx
  401cf2:	f3 48 0f 2a c2       	cvtsi2ss %rdx,%xmm0
  401cf7:	f3 0f 58 c0          	addss  %xmm0,%xmm0
  401cfb:	0f 14 c0             	unpcklps %xmm0,%xmm0
  401cfe:	0f 5a c0             	cvtps2pd %xmm0,%xmm0
  401d01:	f2 0f 59 c8          	mulsd  %xmm0,%xmm1
  401d05:	48 8b 45 c8          	mov    -0x38(%rbp),%rax
  401d09:	48 85 c0             	test   %rax,%rax
  401d0c:	78 07                	js     401d15 <myBench+0x41e>
  401d0e:	f2 48 0f 2a c0       	cvtsi2sd %rax,%xmm0
  401d13:	eb 15                	jmp    401d2a <myBench+0x433>
  401d15:	48 89 c2             	mov    %rax,%rdx
  401d18:	48 d1 ea             	shr    %rdx
  401d1b:	83 e0 01             	and    $0x1,%eax
  401d1e:	48 09 c2             	or     %rax,%rdx
  401d21:	f2 48 0f 2a c2       	cvtsi2sd %rdx,%xmm0
  401d26:	f2 0f 58 c0          	addsd  %xmm0,%xmm0
  401d2a:	f2 0f 5e c8          	divsd  %xmm0,%xmm1
  401d2e:	66 0f 28 c1          	movapd %xmm1,%xmm0
  401d32:	f2 0f 11 85 18 ff ff 	movsd  %xmm0,-0xe8(%rbp)
  401d39:	ff 
  401d3a:	f2 0f 10 4d 90       	movsd  -0x70(%rbp),%xmm1
  401d3f:	f2 0f 10 05 01 16 00 	movsd  0x1601(%rip),%xmm0        # 403348 <_ZZL18__gthread_active_pvE20__gthread_active_ptr+0x18>
  401d46:	00 
  401d47:	f2 0f 59 c8          	mulsd  %xmm0,%xmm1
  401d4b:	8b 05 33 24 20 00    	mov    0x202433(%rip),%eax        # 604184 <FLOP_DP_PER_LOOP>
  401d51:	48 98                	cltq   
  401d53:	48 0f af 45 80       	imul   -0x80(%rbp),%rax
  401d58:	48 85 c0             	test   %rax,%rax
  401d5b:	78 07                	js     401d64 <myBench+0x46d>
  401d5d:	f3 48 0f 2a c0       	cvtsi2ss %rax,%xmm0
  401d62:	eb 15                	jmp    401d79 <myBench+0x482>
  401d64:	48 89 c2             	mov    %rax,%rdx
  401d67:	48 d1 ea             	shr    %rdx
  401d6a:	83 e0 01             	and    $0x1,%eax
  401d6d:	48 09 c2             	or     %rax,%rdx
  401d70:	f3 48 0f 2a c2       	cvtsi2ss %rdx,%xmm0
  401d75:	f3 0f 58 c0          	addss  %xmm0,%xmm0
  401d79:	0f 14 c0             	unpcklps %xmm0,%xmm0
  401d7c:	0f 5a c0             	cvtps2pd %xmm0,%xmm0
  401d7f:	f2 0f 59 c8          	mulsd  %xmm0,%xmm1
  401d83:	48 8b 45 c8          	mov    -0x38(%rbp),%rax
  401d87:	48 85 c0             	test   %rax,%rax
  401d8a:	78 07                	js     401d93 <myBench+0x49c>
  401d8c:	f2 48 0f 2a c0       	cvtsi2sd %rax,%xmm0
  401d91:	eb 15                	jmp    401da8 <myBench+0x4b1>
  401d93:	48 89 c2             	mov    %rax,%rdx
  401d96:	48 d1 ea             	shr    %rdx
  401d99:	83 e0 01             	and    $0x1,%eax
  401d9c:	48 09 c2             	or     %rax,%rdx
  401d9f:	f2 48 0f 2a c2       	cvtsi2sd %rdx,%xmm0
  401da4:	f2 0f 58 c0          	addsd  %xmm0,%xmm0
  401da8:	f2 0f 5e c8          	divsd  %xmm0,%xmm1
  401dac:	66 0f 28 c1          	movapd %xmm1,%xmm0
  401db0:	f2 0f 11 85 10 ff ff 	movsd  %xmm0,-0xf0(%rbp)
  401db7:	ff 
  401db8:	e8 09 08 00 00       	callq  4025c6 <_Z15check_frequencyv>
  401dbd:	f3 0f 11 85 48 fc ff 	movss  %xmm0,-0x3b8(%rbp)
  401dc4:	ff 
  401dc5:	8b 85 48 fc ff ff    	mov    -0x3b8(%rbp),%eax
  401dcb:	89 85 0c ff ff ff    	mov    %eax,-0xf4(%rbp)
  401dd1:	f3 0f 10 85 0c ff ff 	movss  -0xf4(%rbp),%xmm0
  401dd8:	ff 
  401dd9:	0f 5a c0             	cvtps2pd %xmm0,%xmm0
  401ddc:	f2 0f 10 0d 6c 15 00 	movsd  0x156c(%rip),%xmm1        # 403350 <_ZZL18__gthread_active_pvE20__gthread_active_ptr+0x20>
  401de3:	00 
  401de4:	66 0f 2e c8          	ucomisd %xmm0,%xmm1
  401de8:	76 72                	jbe    401e5c <myBench+0x565>
  401dea:	f3 0f 10 85 0c ff ff 	movss  -0xf4(%rbp),%xmm0
  401df1:	ff 
  401df2:	0f 5a c0             	cvtps2pd %xmm0,%xmm0
  401df5:	f2 0f 10 4d b8       	movsd  -0x48(%rbp),%xmm1
  401dfa:	f2 0f 5e c8          	divsd  %xmm0,%xmm1
  401dfe:	66 0f 28 c1          	movapd %xmm1,%xmm0
  401e02:	f2 0f 11 45 b8       	movsd  %xmm0,-0x48(%rbp)
  401e07:	f3 0f 10 85 0c ff ff 	movss  -0xf4(%rbp),%xmm0
  401e0e:	ff 
  401e0f:	0f 5a c0             	cvtps2pd %xmm0,%xmm0
  401e12:	f2 0f 10 4d 90       	movsd  -0x70(%rbp),%xmm1
  401e17:	f2 0f 59 c1          	mulsd  %xmm1,%xmm0
  401e1b:	f2 0f 11 45 90       	movsd  %xmm0,-0x70(%rbp)
  401e20:	f3 0f 10 85 0c ff ff 	movss  -0xf4(%rbp),%xmm0
  401e27:	ff 
  401e28:	0f 5a c0             	cvtps2pd %xmm0,%xmm0
  401e2b:	f2 0f 10 4d a0       	movsd  -0x60(%rbp),%xmm1
  401e30:	f2 0f 5e c8          	divsd  %xmm0,%xmm1
  401e34:	66 0f 28 c1          	movapd %xmm1,%xmm0
  401e38:	f2 0f 11 45 a0       	movsd  %xmm0,-0x60(%rbp)
  401e3d:	f3 0f 10 85 0c ff ff 	movss  -0xf4(%rbp),%xmm0
  401e44:	ff 
  401e45:	0f 5a c0             	cvtps2pd %xmm0,%xmm0
  401e48:	f2 0f 10 4d 98       	movsd  -0x68(%rbp),%xmm1
  401e4d:	f2 0f 5e c8          	divsd  %xmm0,%xmm1
  401e51:	66 0f 28 c1          	movapd %xmm1,%xmm0
  401e55:	f2 0f 11 45 98       	movsd  %xmm0,-0x68(%rbp)
  401e5a:	eb 4b                	jmp    401ea7 <myBench+0x5b0>
  401e5c:	f3 0f 10 85 0c ff ff 	movss  -0xf4(%rbp),%xmm0
  401e63:	ff 
  401e64:	0f 5a c0             	cvtps2pd %xmm0,%xmm0
  401e67:	66 0f 2e 05 e9 14 00 	ucomisd 0x14e9(%rip),%xmm0        # 403358 <_ZZL18__gthread_active_pvE20__gthread_active_ptr+0x28>
  401e6e:	00 
  401e6f:	76 36                	jbe    401ea7 <myBench+0x5b0>
  401e71:	f3 0f 10 85 0c ff ff 	movss  -0xf4(%rbp),%xmm0
  401e78:	ff 
  401e79:	0f 5a c0             	cvtps2pd %xmm0,%xmm0
  401e7c:	f2 0f 10 4d b8       	movsd  -0x48(%rbp),%xmm1
  401e81:	f2 0f 5e c8          	divsd  %xmm0,%xmm1
  401e85:	66 0f 28 c1          	movapd %xmm1,%xmm0
  401e89:	f2 0f 11 45 b8       	movsd  %xmm0,-0x48(%rbp)
  401e8e:	f3 0f 10 85 0c ff ff 	movss  -0xf4(%rbp),%xmm0
  401e95:	ff 
  401e96:	0f 5a c0             	cvtps2pd %xmm0,%xmm0
  401e99:	f2 0f 10 4d 90       	movsd  -0x70(%rbp),%xmm1
  401e9e:	f2 0f 59 c1          	mulsd  %xmm1,%xmm0
  401ea2:	f2 0f 11 45 90       	movsd  %xmm0,-0x70(%rbp)
  401ea7:	f2 0f 10 45 b8       	movsd  -0x48(%rbp),%xmm0
  401eac:	f2 0f 59 45 90       	mulsd  -0x70(%rbp),%xmm0
  401eb1:	f2 0f 11 85 78 ff ff 	movsd  %xmm0,-0x88(%rbp)
  401eb8:	ff 
  401eb9:	be 68 30 40 00       	mov    $0x403068,%esi
  401ebe:	bf a0 41 60 00       	mov    $0x6041a0,%edi
  401ec3:	e8 58 f4 ff ff       	callq  401320 <_ZStlsISt11char_traitsIcEERSt13basic_ostreamIcT_ES5_PKc@plt>
  401ec8:	be 40 14 40 00       	mov    $0x401440,%esi
  401ecd:	48 89 c7             	mov    %rax,%rdi
  401ed0:	e8 3b f5 ff ff       	callq  401410 <_ZNSolsEPFRSoS_E@plt>
  401ed5:	8b 05 d9 23 20 00    	mov    0x2023d9(%rip),%eax        # 6042b4 <P_COUNT>
  401edb:	85 c0                	test   %eax,%eax
  401edd:	0f 84 d3 01 00 00    	je     4020b6 <myBench+0x7bf>
  401ee3:	8b 15 93 22 20 00    	mov    0x202293(%rip),%edx        # 60417c <NB_INST>
  401ee9:	8b 05 85 22 20 00    	mov    0x202285(%rip),%eax        # 604174 <NB_lOOP>
  401eef:	0f af c2             	imul   %edx,%eax
  401ef2:	48 98                	cltq   
  401ef4:	48 29 45 c0          	sub    %rax,-0x40(%rbp)
  401ef8:	bf 0a 00 00 00       	mov    $0xa,%edi
  401efd:	e8 22 0b 00 00       	callq  402a24 <_ZSt4setwi>
  401f02:	89 c3                	mov    %eax,%ebx
  401f04:	bf 0d 00 00 00       	mov    $0xd,%edi
  401f09:	e8 16 0b 00 00       	callq  402a24 <_ZSt4setwi>
  401f0e:	41 89 c4             	mov    %eax,%r12d
  401f11:	bf 14 00 00 00       	mov    $0x14,%edi
  401f16:	e8 09 0b 00 00       	callq  402a24 <_ZSt4setwi>
  401f1b:	41 89 c5             	mov    %eax,%r13d
  401f1e:	bf 19 00 00 00       	mov    $0x19,%edi
  401f23:	e8 fc 0a 00 00       	callq  402a24 <_ZSt4setwi>
  401f28:	41 89 c6             	mov    %eax,%r14d
  401f2b:	bf 14 00 00 00       	mov    $0x14,%edi
  401f30:	e8 ef 0a 00 00       	callq  402a24 <_ZSt4setwi>
  401f35:	89 c6                	mov    %eax,%esi
  401f37:	bf a0 41 60 00       	mov    $0x6041a0,%edi
  401f3c:	e8 8f f5 ff ff       	callq  4014d0 <_ZStlsIcSt11char_traitsIcEERSt13basic_ostreamIT_T0_ES6_St5_Setw@plt>
  401f41:	be a9 30 40 00       	mov    $0x4030a9,%esi
  401f46:	48 89 c7             	mov    %rax,%rdi
  401f49:	e8 d2 f3 ff ff       	callq  401320 <_ZStlsISt11char_traitsIcEERSt13basic_ostreamIcT_ES5_PKc@plt>
  401f4e:	44 89 f6             	mov    %r14d,%esi
  401f51:	48 89 c7             	mov    %rax,%rdi
  401f54:	e8 77 f5 ff ff       	callq  4014d0 <_ZStlsIcSt11char_traitsIcEERSt13basic_ostreamIT_T0_ES6_St5_Setw@plt>
  401f59:	be bc 30 40 00       	mov    $0x4030bc,%esi
  401f5e:	48 89 c7             	mov    %rax,%rdi
  401f61:	e8 ba f3 ff ff       	callq  401320 <_ZStlsISt11char_traitsIcEERSt13basic_ostreamIcT_ES5_PKc@plt>
  401f66:	44 89 ee             	mov    %r13d,%esi
  401f69:	48 89 c7             	mov    %rax,%rdi
  401f6c:	e8 5f f5 ff ff       	callq  4014d0 <_ZStlsIcSt11char_traitsIcEERSt13basic_ostreamIT_T0_ES6_St5_Setw@plt>
  401f71:	be d2 30 40 00       	mov    $0x4030d2,%esi
  401f76:	48 89 c7             	mov    %rax,%rdi
  401f79:	e8 a2 f3 ff ff       	callq  401320 <_ZStlsISt11char_traitsIcEERSt13basic_ostreamIcT_ES5_PKc@plt>
  401f7e:	44 89 e6             	mov    %r12d,%esi
  401f81:	48 89 c7             	mov    %rax,%rdi
  401f84:	e8 47 f5 ff ff       	callq  4014d0 <_ZStlsIcSt11char_traitsIcEERSt13basic_ostreamIT_T0_ES6_St5_Setw@plt>
  401f89:	be de 30 40 00       	mov    $0x4030de,%esi
  401f8e:	48 89 c7             	mov    %rax,%rdi
  401f91:	e8 8a f3 ff ff       	callq  401320 <_ZStlsISt11char_traitsIcEERSt13basic_ostreamIcT_ES5_PKc@plt>
  401f96:	89 de                	mov    %ebx,%esi
  401f98:	48 89 c7             	mov    %rax,%rdi
  401f9b:	e8 30 f5 ff ff       	callq  4014d0 <_ZStlsIcSt11char_traitsIcEERSt13basic_ostreamIT_T0_ES6_St5_Setw@plt>
  401fa0:	be e8 30 40 00       	mov    $0x4030e8,%esi
  401fa5:	48 89 c7             	mov    %rax,%rdi
  401fa8:	e8 73 f3 ff ff       	callq  401320 <_ZStlsISt11char_traitsIcEERSt13basic_ostreamIcT_ES5_PKc@plt>
  401fad:	be 40 14 40 00       	mov    $0x401440,%esi
  401fb2:	48 89 c7             	mov    %rax,%rdi
  401fb5:	e8 56 f4 ff ff       	callq  401410 <_ZNSolsEPFRSoS_E@plt>
  401fba:	f3 0f 10 85 6c ff ff 	movss  -0x94(%rbp),%xmm0
  401fc1:	ff 
  401fc2:	0f 5a c0             	cvtps2pd %xmm0,%xmm0
  401fc5:	f2 0f 59 45 b8       	mulsd  -0x48(%rbp),%xmm0
  401fca:	f2 0f 11 85 48 fc ff 	movsd  %xmm0,-0x3b8(%rbp)
  401fd1:	ff 
  401fd2:	bf 0a 00 00 00       	mov    $0xa,%edi
  401fd7:	e8 48 0a 00 00       	callq  402a24 <_ZSt4setwi>
  401fdc:	89 c3                	mov    %eax,%ebx
  401fde:	bf 0d 00 00 00       	mov    $0xd,%edi
  401fe3:	e8 3c 0a 00 00       	callq  402a24 <_ZSt4setwi>
  401fe8:	41 89 c4             	mov    %eax,%r12d
  401feb:	bf 14 00 00 00       	mov    $0x14,%edi
  401ff0:	e8 2f 0a 00 00       	callq  402a24 <_ZSt4setwi>
  401ff5:	41 89 c5             	mov    %eax,%r13d
  401ff8:	bf 19 00 00 00       	mov    $0x19,%edi
  401ffd:	e8 22 0a 00 00       	callq  402a24 <_ZSt4setwi>
  402002:	41 89 c6             	mov    %eax,%r14d
  402005:	bf 19 00 00 00       	mov    $0x19,%edi
  40200a:	e8 15 0a 00 00       	callq  402a24 <_ZSt4setwi>
  40200f:	89 c6                	mov    %eax,%esi
  402011:	bf a0 41 60 00       	mov    $0x6041a0,%edi
  402016:	e8 b5 f4 ff ff       	callq  4014d0 <_ZStlsIcSt11char_traitsIcEERSt13basic_ostreamIT_T0_ES6_St5_Setw@plt>
  40201b:	48 8b 95 20 ff ff ff 	mov    -0xe0(%rbp),%rdx
  402022:	48 89 d6             	mov    %rdx,%rsi
  402025:	48 89 c7             	mov    %rax,%rdi
  402028:	e8 23 f3 ff ff       	callq  401350 <_ZNSolsEm@plt>
  40202d:	44 89 f6             	mov    %r14d,%esi
  402030:	48 89 c7             	mov    %rax,%rdi
  402033:	e8 98 f4 ff ff       	callq  4014d0 <_ZStlsIcSt11char_traitsIcEERSt13basic_ostreamIT_T0_ES6_St5_Setw@plt>
  402038:	48 8b 55 c0          	mov    -0x40(%rbp),%rdx
  40203c:	48 89 d6             	mov    %rdx,%rsi
  40203f:	48 89 c7             	mov    %rax,%rdi
  402042:	e8 09 f3 ff ff       	callq  401350 <_ZNSolsEm@plt>
  402047:	44 89 ee             	mov    %r13d,%esi
  40204a:	48 89 c7             	mov    %rax,%rdi
  40204d:	e8 7e f4 ff ff       	callq  4014d0 <_ZStlsIcSt11char_traitsIcEERSt13basic_ostreamIT_T0_ES6_St5_Setw@plt>
  402052:	48 8b 55 c8          	mov    -0x38(%rbp),%rdx
  402056:	48 89 d6             	mov    %rdx,%rsi
  402059:	48 89 c7             	mov    %rax,%rdi
  40205c:	e8 ef f2 ff ff       	callq  401350 <_ZNSolsEm@plt>
  402061:	44 89 e6             	mov    %r12d,%esi
  402064:	48 89 c7             	mov    %rax,%rdi
  402067:	e8 64 f4 ff ff       	callq  4014d0 <_ZStlsIcSt11char_traitsIcEERSt13basic_ostreamIT_T0_ES6_St5_Setw@plt>
  40206c:	48 89 c2             	mov    %rax,%rdx
  40206f:	48 8b 45 90          	mov    -0x70(%rbp),%rax
  402073:	48 89 85 40 fc ff ff 	mov    %rax,-0x3c0(%rbp)
  40207a:	f2 0f 10 85 40 fc ff 	movsd  -0x3c0(%rbp),%xmm0
  402081:	ff 
  402082:	48 89 d7             	mov    %rdx,%rdi
  402085:	e8 a6 f1 ff ff       	callq  401230 <_ZNSolsEd@plt>
  40208a:	89 de                	mov    %ebx,%esi
  40208c:	48 89 c7             	mov    %rax,%rdi
  40208f:	e8 3c f4 ff ff       	callq  4014d0 <_ZStlsIcSt11char_traitsIcEERSt13basic_ostreamIT_T0_ES6_St5_Setw@plt>
  402094:	f2 0f 10 85 48 fc ff 	movsd  -0x3b8(%rbp),%xmm0
  40209b:	ff 
  40209c:	48 89 c7             	mov    %rax,%rdi
  40209f:	e8 8c f1 ff ff       	callq  401230 <_ZNSolsEd@plt>
  4020a4:	be 40 14 40 00       	mov    $0x401440,%esi
  4020a9:	48 89 c7             	mov    %rax,%rdi
  4020ac:	e8 5f f3 ff ff       	callq  401410 <_ZNSolsEPFRSoS_E@plt>
  4020b1:	e9 f2 01 00 00       	jmpq   4022a8 <myBench+0x9b1>
  4020b6:	bf 0a 00 00 00       	mov    $0xa,%edi
  4020bb:	e8 64 09 00 00       	callq  402a24 <_ZSt4setwi>
  4020c0:	89 c3                	mov    %eax,%ebx
  4020c2:	bf 14 00 00 00       	mov    $0x14,%edi
  4020c7:	e8 58 09 00 00       	callq  402a24 <_ZSt4setwi>
  4020cc:	41 89 c4             	mov    %eax,%r12d
  4020cf:	bf 0d 00 00 00       	mov    $0xd,%edi
  4020d4:	e8 4b 09 00 00       	callq  402a24 <_ZSt4setwi>
  4020d9:	41 89 c5             	mov    %eax,%r13d
  4020dc:	bf 0a 00 00 00       	mov    $0xa,%edi
  4020e1:	e8 3e 09 00 00       	callq  402a24 <_ZSt4setwi>
  4020e6:	41 89 c6             	mov    %eax,%r14d
  4020e9:	bf 12 00 00 00       	mov    $0x12,%edi
  4020ee:	e8 31 09 00 00       	callq  402a24 <_ZSt4setwi>
  4020f3:	41 89 c7             	mov    %eax,%r15d
  4020f6:	be ec 30 40 00       	mov    $0x4030ec,%esi
  4020fb:	bf a0 41 60 00       	mov    $0x6041a0,%edi
  402100:	e8 1b f2 ff ff       	callq  401320 <_ZStlsISt11char_traitsIcEERSt13basic_ostreamIcT_ES5_PKc@plt>
  402105:	44 89 fe             	mov    %r15d,%esi
  402108:	48 89 c7             	mov    %rax,%rdi
  40210b:	e8 c0 f3 ff ff       	callq  4014d0 <_ZStlsIcSt11char_traitsIcEERSt13basic_ostreamIT_T0_ES6_St5_Setw@plt>
  402110:	be f5 30 40 00       	mov    $0x4030f5,%esi
  402115:	48 89 c7             	mov    %rax,%rdi
  402118:	e8 03 f2 ff ff       	callq  401320 <_ZStlsISt11char_traitsIcEERSt13basic_ostreamIcT_ES5_PKc@plt>
  40211d:	44 89 f6             	mov    %r14d,%esi
  402120:	48 89 c7             	mov    %rax,%rdi
  402123:	e8 a8 f3 ff ff       	callq  4014d0 <_ZStlsIcSt11char_traitsIcEERSt13basic_ostreamIT_T0_ES6_St5_Setw@plt>
  402128:	be 05 31 40 00       	mov    $0x403105,%esi
  40212d:	48 89 c7             	mov    %rax,%rdi
  402130:	e8 eb f1 ff ff       	callq  401320 <_ZStlsISt11char_traitsIcEERSt13basic_ostreamIcT_ES5_PKc@plt>
  402135:	44 89 ee             	mov    %r13d,%esi
  402138:	48 89 c7             	mov    %rax,%rdi
  40213b:	e8 90 f3 ff ff       	callq  4014d0 <_ZStlsIcSt11char_traitsIcEERSt13basic_ostreamIT_T0_ES6_St5_Setw@plt>
  402140:	be de 30 40 00       	mov    $0x4030de,%esi
  402145:	48 89 c7             	mov    %rax,%rdi
  402148:	e8 d3 f1 ff ff       	callq  401320 <_ZStlsISt11char_traitsIcEERSt13basic_ostreamIcT_ES5_PKc@plt>
  40214d:	44 89 e6             	mov    %r12d,%esi
  402150:	48 89 c7             	mov    %rax,%rdi
  402153:	e8 78 f3 ff ff       	callq  4014d0 <_ZStlsIcSt11char_traitsIcEERSt13basic_ostreamIT_T0_ES6_St5_Setw@plt>
  402158:	be 0a 31 40 00       	mov    $0x40310a,%esi
  40215d:	48 89 c7             	mov    %rax,%rdi
  402160:	e8 bb f1 ff ff       	callq  401320 <_ZStlsISt11char_traitsIcEERSt13basic_ostreamIcT_ES5_PKc@plt>
  402165:	89 de                	mov    %ebx,%esi
  402167:	48 89 c7             	mov    %rax,%rdi
  40216a:	e8 61 f3 ff ff       	callq  4014d0 <_ZStlsIcSt11char_traitsIcEERSt13basic_ostreamIT_T0_ES6_St5_Setw@plt>
  40216f:	be e8 30 40 00       	mov    $0x4030e8,%esi
  402174:	48 89 c7             	mov    %rax,%rdi
  402177:	e8 a4 f1 ff ff       	callq  401320 <_ZStlsISt11char_traitsIcEERSt13basic_ostreamIcT_ES5_PKc@plt>
  40217c:	be 40 14 40 00       	mov    $0x401440,%esi
  402181:	48 89 c7             	mov    %rax,%rdi
  402184:	e8 87 f2 ff ff       	callq  401410 <_ZNSolsEPFRSoS_E@plt>
  402189:	bf 0a 00 00 00       	mov    $0xa,%edi
  40218e:	e8 91 08 00 00       	callq  402a24 <_ZSt4setwi>
  402193:	89 c3                	mov    %eax,%ebx
  402195:	bf 14 00 00 00       	mov    $0x14,%edi
  40219a:	e8 85 08 00 00       	callq  402a24 <_ZSt4setwi>
  40219f:	41 89 c4             	mov    %eax,%r12d
  4021a2:	bf 0d 00 00 00       	mov    $0xd,%edi
  4021a7:	e8 78 08 00 00       	callq  402a24 <_ZSt4setwi>
  4021ac:	41 89 c5             	mov    %eax,%r13d
  4021af:	bf 0a 00 00 00       	mov    $0xa,%edi
  4021b4:	e8 6b 08 00 00       	callq  402a24 <_ZSt4setwi>
  4021b9:	41 89 c6             	mov    %eax,%r14d
  4021bc:	bf 12 00 00 00       	mov    $0x12,%edi
  4021c1:	e8 5e 08 00 00       	callq  402a24 <_ZSt4setwi>
  4021c6:	41 89 c7             	mov    %eax,%r15d
  4021c9:	be 18 31 40 00       	mov    $0x403118,%esi
  4021ce:	bf a0 41 60 00       	mov    $0x6041a0,%edi
  4021d3:	e8 48 f1 ff ff       	callq  401320 <_ZStlsISt11char_traitsIcEERSt13basic_ostreamIcT_ES5_PKc@plt>
  4021d8:	44 89 fe             	mov    %r15d,%esi
  4021db:	48 89 c7             	mov    %rax,%rdi
  4021de:	e8 ed f2 ff ff       	callq  4014d0 <_ZStlsIcSt11char_traitsIcEERSt13basic_ostreamIT_T0_ES6_St5_Setw@plt>
  4021e3:	48 8b 95 20 ff ff ff 	mov    -0xe0(%rbp),%rdx
  4021ea:	48 89 d6             	mov    %rdx,%rsi
  4021ed:	48 89 c7             	mov    %rax,%rdi
  4021f0:	e8 5b f1 ff ff       	callq  401350 <_ZNSolsEm@plt>
  4021f5:	44 89 f6             	mov    %r14d,%esi
  4021f8:	48 89 c7             	mov    %rax,%rdi
  4021fb:	e8 d0 f2 ff ff       	callq  4014d0 <_ZStlsIcSt11char_traitsIcEERSt13basic_ostreamIT_T0_ES6_St5_Setw@plt>
  402200:	48 89 c2             	mov    %rax,%rdx
  402203:	48 8b 45 a8          	mov    -0x58(%rbp),%rax
  402207:	48 89 85 48 fc ff ff 	mov    %rax,-0x3b8(%rbp)
  40220e:	f2 0f 10 85 48 fc ff 	movsd  -0x3b8(%rbp),%xmm0
  402215:	ff 
  402216:	48 89 d7             	mov    %rdx,%rdi
  402219:	e8 12 f0 ff ff       	callq  401230 <_ZNSolsEd@plt>
  40221e:	44 89 ee             	mov    %r13d,%esi
  402221:	48 89 c7             	mov    %rax,%rdi
  402224:	e8 a7 f2 ff ff       	callq  4014d0 <_ZStlsIcSt11char_traitsIcEERSt13basic_ostreamIT_T0_ES6_St5_Setw@plt>
  402229:	48 89 c2             	mov    %rax,%rdx
  40222c:	48 8b 45 90          	mov    -0x70(%rbp),%rax
  402230:	48 89 85 48 fc ff ff 	mov    %rax,-0x3b8(%rbp)
  402237:	f2 0f 10 85 48 fc ff 	movsd  -0x3b8(%rbp),%xmm0
  40223e:	ff 
  40223f:	48 89 d7             	mov    %rdx,%rdi
  402242:	e8 e9 ef ff ff       	callq  401230 <_ZNSolsEd@plt>
  402247:	44 89 e6             	mov    %r12d,%esi
  40224a:	48 89 c7             	mov    %rax,%rdi
  40224d:	e8 7e f2 ff ff       	callq  4014d0 <_ZStlsIcSt11char_traitsIcEERSt13basic_ostreamIT_T0_ES6_St5_Setw@plt>
  402252:	48 89 c2             	mov    %rax,%rdx
  402255:	48 8b 85 78 ff ff ff 	mov    -0x88(%rbp),%rax
  40225c:	48 89 85 48 fc ff ff 	mov    %rax,-0x3b8(%rbp)
  402263:	f2 0f 10 85 48 fc ff 	movsd  -0x3b8(%rbp),%xmm0
  40226a:	ff 
  40226b:	48 89 d7             	mov    %rdx,%rdi
  40226e:	e8 bd ef ff ff       	callq  401230 <_ZNSolsEd@plt>
  402273:	89 de                	mov    %ebx,%esi
  402275:	48 89 c7             	mov    %rax,%rdi
  402278:	e8 53 f2 ff ff       	callq  4014d0 <_ZStlsIcSt11char_traitsIcEERSt13basic_ostreamIT_T0_ES6_St5_Setw@plt>
  40227d:	48 89 c2             	mov    %rax,%rdx
  402280:	48 8b 45 b8          	mov    -0x48(%rbp),%rax
  402284:	48 89 85 48 fc ff ff 	mov    %rax,-0x3b8(%rbp)
  40228b:	f2 0f 10 85 48 fc ff 	movsd  -0x3b8(%rbp),%xmm0
  402292:	ff 
  402293:	48 89 d7             	mov    %rdx,%rdi
  402296:	e8 95 ef ff ff       	callq  401230 <_ZNSolsEd@plt>
  40229b:	be 40 14 40 00       	mov    $0x401440,%esi
  4022a0:	48 89 c7             	mov    %rax,%rdi
  4022a3:	e8 68 f1 ff ff       	callq  401410 <_ZNSolsEPFRSoS_E@plt>
  4022a8:	be 40 14 40 00       	mov    $0x401440,%esi
  4022ad:	bf a0 41 60 00       	mov    $0x6041a0,%edi
  4022b2:	e8 59 f1 ff ff       	callq  401410 <_ZNSolsEPFRSoS_E@plt>
  4022b7:	be 28 31 40 00       	mov    $0x403128,%esi
  4022bc:	bf a0 41 60 00       	mov    $0x6041a0,%edi
  4022c1:	e8 5a f0 ff ff       	callq  401320 <_ZStlsISt11char_traitsIcEERSt13basic_ostreamIcT_ES5_PKc@plt>
  4022c6:	be 40 14 40 00       	mov    $0x401440,%esi
  4022cb:	48 89 c7             	mov    %rax,%rdi
  4022ce:	e8 3d f1 ff ff       	callq  401410 <_ZNSolsEPFRSoS_E@plt>
  4022d3:	bf 14 00 00 00       	mov    $0x14,%edi
  4022d8:	e8 47 07 00 00       	callq  402a24 <_ZSt4setwi>
  4022dd:	89 c3                	mov    %eax,%ebx
  4022df:	bf 0f 00 00 00       	mov    $0xf,%edi
  4022e4:	e8 3b 07 00 00       	callq  402a24 <_ZSt4setwi>
  4022e9:	41 89 c4             	mov    %eax,%r12d
  4022ec:	bf 0a 00 00 00       	mov    $0xa,%edi
  4022f1:	e8 2e 07 00 00       	callq  402a24 <_ZSt4setwi>
  4022f6:	89 c6                	mov    %eax,%esi
  4022f8:	bf a0 41 60 00       	mov    $0x6041a0,%edi
  4022fd:	e8 ce f1 ff ff       	callq  4014d0 <_ZStlsIcSt11char_traitsIcEERSt13basic_ostreamIT_T0_ES6_St5_Setw@plt>
  402302:	be 69 31 40 00       	mov    $0x403169,%esi
  402307:	48 89 c7             	mov    %rax,%rdi
  40230a:	e8 11 f0 ff ff       	callq  401320 <_ZStlsISt11char_traitsIcEERSt13basic_ostreamIcT_ES5_PKc@plt>
  40230f:	44 89 e6             	mov    %r12d,%esi
  402312:	48 89 c7             	mov    %rax,%rdi
  402315:	e8 b6 f1 ff ff       	callq  4014d0 <_ZStlsIcSt11char_traitsIcEERSt13basic_ostreamIT_T0_ES6_St5_Setw@plt>
  40231a:	be 73 31 40 00       	mov    $0x403173,%esi
  40231f:	48 89 c7             	mov    %rax,%rdi
  402322:	e8 f9 ef ff ff       	callq  401320 <_ZStlsISt11char_traitsIcEERSt13basic_ostreamIcT_ES5_PKc@plt>
  402327:	89 de                	mov    %ebx,%esi
  402329:	48 89 c7             	mov    %rax,%rdi
  40232c:	e8 9f f1 ff ff       	callq  4014d0 <_ZStlsIcSt11char_traitsIcEERSt13basic_ostreamIT_T0_ES6_St5_Setw@plt>
  402331:	be 7e 31 40 00       	mov    $0x40317e,%esi
  402336:	48 89 c7             	mov    %rax,%rdi
  402339:	e8 e2 ef ff ff       	callq  401320 <_ZStlsISt11char_traitsIcEERSt13basic_ostreamIcT_ES5_PKc@plt>
  40233e:	be 40 14 40 00       	mov    $0x401440,%esi
  402343:	48 89 c7             	mov    %rax,%rdi
  402346:	e8 c5 f0 ff ff       	callq  401410 <_ZNSolsEPFRSoS_E@plt>
  40234b:	bf 14 00 00 00       	mov    $0x14,%edi
  402350:	e8 cf 06 00 00       	callq  402a24 <_ZSt4setwi>
  402355:	89 c3                	mov    %eax,%ebx
  402357:	bf 0f 00 00 00       	mov    $0xf,%edi
  40235c:	e8 c3 06 00 00       	callq  402a24 <_ZSt4setwi>
  402361:	41 89 c4             	mov    %eax,%r12d
  402364:	bf 0a 00 00 00       	mov    $0xa,%edi
  402369:	e8 b6 06 00 00       	callq  402a24 <_ZSt4setwi>
  40236e:	89 c6                	mov    %eax,%esi
  402370:	bf a0 41 60 00       	mov    $0x6041a0,%edi
  402375:	e8 56 f1 ff ff       	callq  4014d0 <_ZStlsIcSt11char_traitsIcEERSt13basic_ostreamIT_T0_ES6_St5_Setw@plt>
  40237a:	be 8a 31 40 00       	mov    $0x40318a,%esi
  40237f:	48 89 c7             	mov    %rax,%rdi
  402382:	e8 99 ef ff ff       	callq  401320 <_ZStlsISt11char_traitsIcEERSt13basic_ostreamIcT_ES5_PKc@plt>
  402387:	44 89 e6             	mov    %r12d,%esi
  40238a:	48 89 c7             	mov    %rax,%rdi
  40238d:	e8 3e f1 ff ff       	callq  4014d0 <_ZStlsIcSt11char_traitsIcEERSt13basic_ostreamIT_T0_ES6_St5_Setw@plt>
  402392:	48 89 c2             	mov    %rax,%rdx
  402395:	48 8b 45 a0          	mov    -0x60(%rbp),%rax
  402399:	48 89 85 48 fc ff ff 	mov    %rax,-0x3b8(%rbp)
  4023a0:	f2 0f 10 85 48 fc ff 	movsd  -0x3b8(%rbp),%xmm0
  4023a7:	ff 
  4023a8:	48 89 d7             	mov    %rdx,%rdi
  4023ab:	e8 80 ee ff ff       	callq  401230 <_ZNSolsEd@plt>
  4023b0:	89 de                	mov    %ebx,%esi
  4023b2:	48 89 c7             	mov    %rax,%rdi
  4023b5:	e8 16 f1 ff ff       	callq  4014d0 <_ZStlsIcSt11char_traitsIcEERSt13basic_ostreamIT_T0_ES6_St5_Setw@plt>
  4023ba:	48 89 c2             	mov    %rax,%rdx
  4023bd:	48 8b 85 18 ff ff ff 	mov    -0xe8(%rbp),%rax
  4023c4:	48 89 85 48 fc ff ff 	mov    %rax,-0x3b8(%rbp)
  4023cb:	f2 0f 10 85 48 fc ff 	movsd  -0x3b8(%rbp),%xmm0
  4023d2:	ff 
  4023d3:	48 89 d7             	mov    %rdx,%rdi
  4023d6:	e8 55 ee ff ff       	callq  401230 <_ZNSolsEd@plt>
  4023db:	be 40 14 40 00       	mov    $0x401440,%esi
  4023e0:	48 89 c7             	mov    %rax,%rdi
  4023e3:	e8 28 f0 ff ff       	callq  401410 <_ZNSolsEPFRSoS_E@plt>
  4023e8:	bf 14 00 00 00       	mov    $0x14,%edi
  4023ed:	e8 32 06 00 00       	callq  402a24 <_ZSt4setwi>
  4023f2:	89 c3                	mov    %eax,%ebx
  4023f4:	bf 0f 00 00 00       	mov    $0xf,%edi
  4023f9:	e8 26 06 00 00       	callq  402a24 <_ZSt4setwi>
  4023fe:	41 89 c4             	mov    %eax,%r12d
  402401:	bf 0a 00 00 00       	mov    $0xa,%edi
  402406:	e8 19 06 00 00       	callq  402a24 <_ZSt4setwi>
  40240b:	89 c6                	mov    %eax,%esi
  40240d:	bf a0 41 60 00       	mov    $0x6041a0,%edi
  402412:	e8 b9 f0 ff ff       	callq  4014d0 <_ZStlsIcSt11char_traitsIcEERSt13basic_ostreamIT_T0_ES6_St5_Setw@plt>
  402417:	be 91 31 40 00       	mov    $0x403191,%esi
  40241c:	48 89 c7             	mov    %rax,%rdi
  40241f:	e8 fc ee ff ff       	callq  401320 <_ZStlsISt11char_traitsIcEERSt13basic_ostreamIcT_ES5_PKc@plt>
  402424:	44 89 e6             	mov    %r12d,%esi
  402427:	48 89 c7             	mov    %rax,%rdi
  40242a:	e8 a1 f0 ff ff       	callq  4014d0 <_ZStlsIcSt11char_traitsIcEERSt13basic_ostreamIT_T0_ES6_St5_Setw@plt>
  40242f:	48 89 c2             	mov    %rax,%rdx
  402432:	48 8b 45 98          	mov    -0x68(%rbp),%rax
  402436:	48 89 85 48 fc ff ff 	mov    %rax,-0x3b8(%rbp)
  40243d:	f2 0f 10 85 48 fc ff 	movsd  -0x3b8(%rbp),%xmm0
  402444:	ff 
  402445:	48 89 d7             	mov    %rdx,%rdi
  402448:	e8 e3 ed ff ff       	callq  401230 <_ZNSolsEd@plt>
  40244d:	89 de                	mov    %ebx,%esi
  40244f:	48 89 c7             	mov    %rax,%rdi
  402452:	e8 79 f0 ff ff       	callq  4014d0 <_ZStlsIcSt11char_traitsIcEERSt13basic_ostreamIT_T0_ES6_St5_Setw@plt>
  402457:	48 89 c2             	mov    %rax,%rdx
  40245a:	48 8b 85 10 ff ff ff 	mov    -0xf0(%rbp),%rax
  402461:	48 89 85 48 fc ff ff 	mov    %rax,-0x3b8(%rbp)
  402468:	f2 0f 10 85 48 fc ff 	movsd  -0x3b8(%rbp),%xmm0
  40246f:	ff 
  402470:	48 89 d7             	mov    %rdx,%rdi
  402473:	e8 b8 ed ff ff       	callq  401230 <_ZNSolsEd@plt>
  402478:	be 40 14 40 00       	mov    $0x401440,%esi
  40247d:	48 89 c7             	mov    %rax,%rdi
  402480:	e8 8b ef ff ff       	callq  401410 <_ZNSolsEPFRSoS_E@plt>
  402485:	be 98 31 40 00       	mov    $0x403198,%esi
  40248a:	bf a0 41 60 00       	mov    $0x6041a0,%edi
  40248f:	e8 8c ee ff ff       	callq  401320 <_ZStlsISt11char_traitsIcEERSt13basic_ostreamIcT_ES5_PKc@plt>
  402494:	be 40 14 40 00       	mov    $0x401440,%esi
  402499:	48 89 c7             	mov    %rax,%rdi
  40249c:	e8 6f ef ff ff       	callq  401410 <_ZNSolsEPFRSoS_E@plt>
  4024a1:	c7 45 8c 00 00 00 00 	movl   $0x0,-0x74(%rbp)
  4024a8:	e9 a0 00 00 00       	jmpq   40254d <myBench+0xc56>
  4024ad:	8b 45 8c             	mov    -0x74(%rbp),%eax
  4024b0:	48 98                	cltq   
  4024b2:	48 c1 e0 04          	shl    $0x4,%rax
  4024b6:	48 89 c2             	mov    %rax,%rdx
  4024b9:	48 8b 85 70 ff ff ff 	mov    -0x90(%rbp),%rax
  4024c0:	48 01 d0             	add    %rdx,%rax
  4024c3:	48 8b 40 08          	mov    0x8(%rax),%rax
  4024c7:	48 8d 95 00 ff ff ff 	lea    -0x100(%rbp),%rdx
  4024ce:	48 89 85 48 fc ff ff 	mov    %rax,-0x3b8(%rbp)
  4024d5:	f2 0f 10 85 48 fc ff 	movsd  -0x3b8(%rbp),%xmm0
  4024dc:	ff 
  4024dd:	48 89 d7             	mov    %rdx,%rdi
  4024e0:	e8 cd 04 00 00       	callq  4029b2 <_ZSt9to_stringd>
  4024e5:	8b 45 8c             	mov    -0x74(%rbp),%eax
  4024e8:	48 98                	cltq   
  4024ea:	48 c1 e0 04          	shl    $0x4,%rax
  4024ee:	48 89 c2             	mov    %rax,%rdx
  4024f1:	48 8b 85 70 ff ff ff 	mov    -0x90(%rbp),%rax
  4024f8:	48 01 d0             	add    %rdx,%rax
  4024fb:	8b 10                	mov    (%rax),%edx
  4024fd:	48 8d 85 e0 fc ff ff 	lea    -0x320(%rbp),%rax
  402504:	89 d6                	mov    %edx,%esi
  402506:	48 89 c7             	mov    %rax,%rdi
  402509:	e8 42 ed ff ff       	callq  401250 <_ZNSolsEi@plt>
  40250e:	be d9 31 40 00       	mov    $0x4031d9,%esi
  402513:	48 89 c7             	mov    %rax,%rdi
  402516:	e8 05 ee ff ff       	callq  401320 <_ZStlsISt11char_traitsIcEERSt13basic_ostreamIcT_ES5_PKc@plt>
  40251b:	48 8d 95 00 ff ff ff 	lea    -0x100(%rbp),%rdx
  402522:	48 89 d6             	mov    %rdx,%rsi
  402525:	48 89 c7             	mov    %rax,%rdi
  402528:	e8 93 ee ff ff       	callq  4013c0 <_ZStlsIcSt11char_traitsIcESaIcEERSt13basic_ostreamIT_T0_ES7_RKSbIS4_S5_T1_E@plt>
  40252d:	be 40 14 40 00       	mov    $0x401440,%esi
  402532:	48 89 c7             	mov    %rax,%rdi
  402535:	e8 d6 ee ff ff       	callq  401410 <_ZNSolsEPFRSoS_E@plt>
  40253a:	48 8d 85 00 ff ff ff 	lea    -0x100(%rbp),%rax
  402541:	48 89 c7             	mov    %rax,%rdi
  402544:	e8 e7 ed ff ff       	callq  401330 <_ZNSsD1Ev@plt>
  402549:	83 45 8c 01          	addl   $0x1,-0x74(%rbp)
  40254d:	8b 05 21 1c 20 00    	mov    0x201c21(%rip),%eax        # 604174 <NB_lOOP>
  402553:	39 45 8c             	cmp    %eax,-0x74(%rbp)
  402556:	0f 8c 51 ff ff ff    	jl     4024ad <myBench+0xbb6>
  40255c:	48 8d 85 e0 fc ff ff 	lea    -0x320(%rbp),%rax
  402563:	48 89 c7             	mov    %rax,%rdi
  402566:	e8 35 ee ff ff       	callq  4013a0 <_ZNSt14basic_ofstreamIcSt11char_traitsIcEE5closeEv@plt>
  40256b:	bb 00 00 00 00       	mov    $0x0,%ebx
  402570:	48 8d 85 e0 fc ff ff 	lea    -0x320(%rbp),%rax
  402577:	48 89 c7             	mov    %rax,%rdi
  40257a:	e8 01 ee ff ff       	callq  401380 <_ZNSt14basic_ofstreamIcSt11char_traitsIcEED1Ev@plt>
  40257f:	89 d8                	mov    %ebx,%eax
  402581:	eb 31                	jmp    4025b4 <myBench+0xcbd>
  402583:	48 89 c3             	mov    %rax,%rbx
  402586:	48 8d 85 00 ff ff ff 	lea    -0x100(%rbp),%rax
  40258d:	48 89 c7             	mov    %rax,%rdi
  402590:	e8 9b ed ff ff       	callq  401330 <_ZNSsD1Ev@plt>
  402595:	eb 03                	jmp    40259a <myBench+0xca3>
  402597:	48 89 c3             	mov    %rax,%rbx
  40259a:	48 8d 85 e0 fc ff ff 	lea    -0x320(%rbp),%rax
  4025a1:	48 89 c7             	mov    %rax,%rdi
  4025a4:	e8 d7 ed ff ff       	callq  401380 <_ZNSt14basic_ofstreamIcSt11char_traitsIcEED1Ev@plt>
  4025a9:	48 89 d8             	mov    %rbx,%rax
  4025ac:	48 89 c7             	mov    %rax,%rdi
  4025af:	e8 dc ee ff ff       	callq  401490 <_Unwind_Resume@plt>
  4025b4:	48 81 c4 98 03 00 00 	add    $0x398,%rsp
  4025bb:	5b                   	pop    %rbx
  4025bc:	41 5c                	pop    %r12
  4025be:	41 5d                	pop    %r13
  4025c0:	41 5e                	pop    %r14
  4025c2:	41 5f                	pop    %r15
  4025c4:	5d                   	pop    %rbp
  4025c5:	c3                   	retq   

00000000004025c6 <_Z15check_frequencyv>:
  4025c6:	55                   	push   %rbp
  4025c7:	48 89 e5             	mov    %rsp,%rbp
  4025ca:	48 83 ec 60          	sub    $0x60,%rsp
  4025ce:	0f b6 05 b3 1b 20 00 	movzbl 0x201bb3(%rip),%eax        # 604188 <is_check_freq>
  4025d5:	83 f0 01             	xor    $0x1,%eax
  4025d8:	84 c0                	test   %al,%al
  4025da:	74 0b                	je     4025e7 <_Z15check_frequencyv+0x21>
  4025dc:	8b 05 5e 0d 00 00    	mov    0xd5e(%rip),%eax        # 403340 <_ZZL18__gthread_active_pvE20__gthread_active_ptr+0x10>
  4025e2:	e9 6f 03 00 00       	jmpq   402956 <aloop+0x25e>
  4025e7:	be e0 31 40 00       	mov    $0x4031e0,%esi
  4025ec:	bf a0 41 60 00       	mov    $0x6041a0,%edi
  4025f1:	e8 2a ed ff ff       	callq  401320 <_ZStlsISt11char_traitsIcEERSt13basic_ostreamIcT_ES5_PKc@plt>
  4025f6:	be 40 14 40 00       	mov    $0x401440,%esi
  4025fb:	48 89 c7             	mov    %rax,%rdi
  4025fe:	e8 0d ee ff ff       	callq  401410 <_ZNSolsEPFRSoS_E@plt>
  402603:	c7 45 f8 05 00 00 00 	movl   $0x5,-0x8(%rbp)
  40260a:	e8 ec ef ff ff       	callq  4015fb <_Z9mygettimev>
  40260f:	f2 0f 11 45 a8       	movsd  %xmm0,-0x58(%rbp)
  402614:	48 8b 45 a8          	mov    -0x58(%rbp),%rax
  402618:	48 89 45 f0          	mov    %rax,-0x10(%rbp)
  40261c:	e8 bc ef ff ff       	callq  4015dd <_Z5rdtscv>
  402621:	48 89 45 e8          	mov    %rax,-0x18(%rbp)
  402625:	bf 10 27 00 00       	mov    $0x2710,%edi
  40262a:	e8 31 ed ff ff       	callq  401360 <usleep@plt>
  40262f:	e8 a9 ef ff ff       	callq  4015dd <_Z5rdtscv>
  402634:	48 89 45 e0          	mov    %rax,-0x20(%rbp)
  402638:	e8 be ef ff ff       	callq  4015fb <_Z9mygettimev>
  40263d:	f2 0f 11 45 a8       	movsd  %xmm0,-0x58(%rbp)
  402642:	48 8b 45 a8          	mov    -0x58(%rbp),%rax
  402646:	48 89 45 d8          	mov    %rax,-0x28(%rbp)
  40264a:	48 8b 45 e8          	mov    -0x18(%rbp),%rax
  40264e:	48 8b 55 e0          	mov    -0x20(%rbp),%rdx
  402652:	48 29 c2             	sub    %rax,%rdx
  402655:	48 89 d0             	mov    %rdx,%rax
  402658:	48 89 45 d0          	mov    %rax,-0x30(%rbp)
  40265c:	48 8b 45 d0          	mov    -0x30(%rbp),%rax
  402660:	48 85 c0             	test   %rax,%rax
  402663:	78 07                	js     40266c <_Z15check_frequencyv+0xa6>
  402665:	f2 48 0f 2a c0       	cvtsi2sd %rax,%xmm0
  40266a:	eb 15                	jmp    402681 <_Z15check_frequencyv+0xbb>
  40266c:	48 89 c2             	mov    %rax,%rdx
  40266f:	48 d1 ea             	shr    %rdx
  402672:	83 e0 01             	and    $0x1,%eax
  402675:	48 09 c2             	or     %rax,%rdx
  402678:	f2 48 0f 2a c2       	cvtsi2sd %rdx,%xmm0
  40267d:	f2 0f 58 c0          	addsd  %xmm0,%xmm0
  402681:	f2 0f 10 4d d8       	movsd  -0x28(%rbp),%xmm1
  402686:	f2 0f 5c 4d f0       	subsd  -0x10(%rbp),%xmm1
  40268b:	f2 0f 10 15 b5 0c 00 	movsd  0xcb5(%rip),%xmm2        # 403348 <_ZZL18__gthread_active_pvE20__gthread_active_ptr+0x18>
  402692:	00 
  402693:	f2 0f 59 ca          	mulsd  %xmm2,%xmm1
  402697:	f2 0f 5e c1          	divsd  %xmm1,%xmm0
  40269b:	f2 0f 11 45 c8       	movsd  %xmm0,-0x38(%rbp)
  4026a0:	be 20 32 40 00       	mov    $0x403220,%esi
  4026a5:	bf a0 41 60 00       	mov    $0x6041a0,%edi
  4026aa:	e8 71 ec ff ff       	callq  401320 <_ZStlsISt11char_traitsIcEERSt13basic_ostreamIcT_ES5_PKc@plt>
  4026af:	48 89 c2             	mov    %rax,%rdx
  4026b2:	48 8b 45 c8          	mov    -0x38(%rbp),%rax
  4026b6:	48 89 45 a8          	mov    %rax,-0x58(%rbp)
  4026ba:	f2 0f 10 45 a8       	movsd  -0x58(%rbp),%xmm0
  4026bf:	48 89 d7             	mov    %rdx,%rdi
  4026c2:	e8 69 eb ff ff       	callq  401230 <_ZNSolsEd@plt>
  4026c7:	be 3a 32 40 00       	mov    $0x40323a,%esi
  4026cc:	48 89 c7             	mov    %rax,%rdi
  4026cf:	e8 4c ec ff ff       	callq  401320 <_ZStlsISt11char_traitsIcEERSt13basic_ostreamIcT_ES5_PKc@plt>
  4026d4:	be 40 14 40 00       	mov    $0x401440,%esi
  4026d9:	48 89 c7             	mov    %rax,%rdi
  4026dc:	e8 2f ed ff ff       	callq  401410 <_ZNSolsEPFRSoS_E@plt>
  4026e1:	e8 f7 ee ff ff       	callq  4015dd <_Z5rdtscv>
  4026e6:	48 89 45 e8          	mov    %rax,-0x18(%rbp)
  4026ea:	c7 45 fc 00 00 00 00 	movl   $0x0,-0x4(%rbp)
  4026f1:	eb 23                	jmp    402716 <aloop+0x1e>
  4026f3:	b8 00 5a 62 02       	mov    $0x2625a00,%eax

00000000004026f8 <aloop>:
  4026f8:	83 e8 01             	sub    $0x1,%eax
  4026fb:	83 e8 01             	sub    $0x1,%eax
  4026fe:	83 e8 01             	sub    $0x1,%eax
  402701:	83 e8 01             	sub    $0x1,%eax
  402704:	83 e8 01             	sub    $0x1,%eax
  402707:	83 e8 01             	sub    $0x1,%eax
  40270a:	83 e8 01             	sub    $0x1,%eax
  40270d:	83 e8 01             	sub    $0x1,%eax
  402710:	75 e6                	jne    4026f8 <aloop>
  402712:	83 45 fc 01          	addl   $0x1,-0x4(%rbp)
  402716:	8b 45 fc             	mov    -0x4(%rbp),%eax
  402719:	3b 45 f8             	cmp    -0x8(%rbp),%eax
  40271c:	7c d5                	jl     4026f3 <_Z15check_frequencyv+0x12d>
  40271e:	e8 ba ee ff ff       	callq  4015dd <_Z5rdtscv>
  402723:	48 89 45 e0          	mov    %rax,-0x20(%rbp)
  402727:	48 8b 45 e8          	mov    -0x18(%rbp),%rax
  40272b:	48 8b 55 e0          	mov    -0x20(%rbp),%rdx
  40272f:	48 29 c2             	sub    %rax,%rdx
  402732:	48 89 d0             	mov    %rdx,%rax
  402735:	48 89 45 d0          	mov    %rax,-0x30(%rbp)
  402739:	f2 0f 2a 45 f8       	cvtsi2sdl -0x8(%rbp),%xmm0
  40273e:	f2 0f 10 0d 1a 0c 00 	movsd  0xc1a(%rip),%xmm1        # 403360 <_ZZL18__gthread_active_pvE20__gthread_active_ptr+0x30>
  402745:	00 
  402746:	f2 0f 59 c1          	mulsd  %xmm1,%xmm0
  40274a:	66 0f 2e 05 16 0c 00 	ucomisd 0xc16(%rip),%xmm0        # 403368 <_ZZL18__gthread_active_pvE20__gthread_active_ptr+0x38>
  402751:	00 
  402752:	73 0b                	jae    40275f <aloop+0x67>
  402754:	f2 48 0f 2c c0       	cvttsd2si %xmm0,%rax
  402759:	48 89 45 c0          	mov    %rax,-0x40(%rbp)
  40275d:	eb 23                	jmp    402782 <aloop+0x8a>
  40275f:	f2 0f 10 0d 01 0c 00 	movsd  0xc01(%rip),%xmm1        # 403368 <_ZZL18__gthread_active_pvE20__gthread_active_ptr+0x38>
  402766:	00 
  402767:	f2 0f 5c c1          	subsd  %xmm1,%xmm0
  40276b:	f2 48 0f 2c c0       	cvttsd2si %xmm0,%rax
  402770:	48 89 45 c0          	mov    %rax,-0x40(%rbp)
  402774:	48 b8 00 00 00 00 00 	movabs $0x8000000000000000,%rax
  40277b:	00 00 80 
  40277e:	48 31 45 c0          	xor    %rax,-0x40(%rbp)
  402782:	48 8b 45 c0          	mov    -0x40(%rbp),%rax
  402786:	48 89 45 c0          	mov    %rax,-0x40(%rbp)
  40278a:	48 8b 45 c0          	mov    -0x40(%rbp),%rax
  40278e:	48 85 c0             	test   %rax,%rax
  402791:	78 07                	js     40279a <aloop+0xa2>
  402793:	f2 48 0f 2a c0       	cvtsi2sd %rax,%xmm0
  402798:	eb 15                	jmp    4027af <aloop+0xb7>
  40279a:	48 89 c2             	mov    %rax,%rdx
  40279d:	48 d1 ea             	shr    %rdx
  4027a0:	83 e0 01             	and    $0x1,%eax
  4027a3:	48 09 c2             	or     %rax,%rdx
  4027a6:	f2 48 0f 2a c2       	cvtsi2sd %rdx,%xmm0
  4027ab:	f2 0f 58 c0          	addsd  %xmm0,%xmm0
  4027af:	48 8b 45 d0          	mov    -0x30(%rbp),%rax
  4027b3:	48 85 c0             	test   %rax,%rax
  4027b6:	78 07                	js     4027bf <aloop+0xc7>
  4027b8:	f2 48 0f 2a c8       	cvtsi2sd %rax,%xmm1
  4027bd:	eb 15                	jmp    4027d4 <aloop+0xdc>
  4027bf:	48 89 c2             	mov    %rax,%rdx
  4027c2:	48 d1 ea             	shr    %rdx
  4027c5:	83 e0 01             	and    $0x1,%eax
  4027c8:	48 09 c2             	or     %rax,%rdx
  4027cb:	f2 48 0f 2a ca       	cvtsi2sd %rdx,%xmm1
  4027d0:	f2 0f 58 c9          	addsd  %xmm1,%xmm1
  4027d4:	f2 0f 5e c1          	divsd  %xmm1,%xmm0
  4027d8:	66 0f 14 c0          	unpcklpd %xmm0,%xmm0
  4027dc:	66 0f 5a d8          	cvtpd2ps %xmm0,%xmm3
  4027e0:	f3 0f 11 5d bc       	movss  %xmm3,-0x44(%rbp)
  4027e5:	f3 0f 10 45 bc       	movss  -0x44(%rbp),%xmm0
  4027ea:	0f 5a c0             	cvtps2pd %xmm0,%xmm0
  4027ed:	f2 0f 59 45 c8       	mulsd  -0x38(%rbp),%xmm0
  4027f2:	66 0f 14 c0          	unpcklpd %xmm0,%xmm0
  4027f6:	66 0f 5a e0          	cvtpd2ps %xmm0,%xmm4
  4027fa:	f3 0f 11 65 b8       	movss  %xmm4,-0x48(%rbp)
  4027ff:	be 3e 32 40 00       	mov    $0x40323e,%esi
  402804:	bf a0 41 60 00       	mov    $0x6041a0,%edi
  402809:	e8 12 eb ff ff       	callq  401320 <_ZStlsISt11char_traitsIcEERSt13basic_ostreamIcT_ES5_PKc@plt>
  40280e:	48 89 c2             	mov    %rax,%rdx
  402811:	8b 45 b8             	mov    -0x48(%rbp),%eax
  402814:	89 45 a8             	mov    %eax,-0x58(%rbp)
  402817:	f3 0f 10 45 a8       	movss  -0x58(%rbp),%xmm0
  40281c:	48 89 d7             	mov    %rdx,%rdi
  40281f:	e8 dc eb ff ff       	callq  401400 <_ZNSolsEf@plt>
  402824:	be 3a 32 40 00       	mov    $0x40323a,%esi
  402829:	48 89 c7             	mov    %rax,%rdi
  40282c:	e8 ef ea ff ff       	callq  401320 <_ZStlsISt11char_traitsIcEERSt13basic_ostreamIcT_ES5_PKc@plt>
  402831:	be 40 14 40 00       	mov    $0x401440,%esi
  402836:	48 89 c7             	mov    %rax,%rdi
  402839:	e8 d2 eb ff ff       	callq  401410 <_ZNSolsEPFRSoS_E@plt>
  40283e:	f3 0f 10 45 b8       	movss  -0x48(%rbp),%xmm0
  402843:	0f 5a c0             	cvtps2pd %xmm0,%xmm0
  402846:	f2 0f 10 4d c8       	movsd  -0x38(%rbp),%xmm1
  40284b:	f2 0f 5c c8          	subsd  %xmm0,%xmm1
  40284f:	66 0f 28 c1          	movapd %xmm1,%xmm0
  402853:	66 0f 2e 05 15 0b 00 	ucomisd 0xb15(%rip),%xmm0        # 403370 <_ZZL18__gthread_active_pvE20__gthread_active_ptr+0x40>
  40285a:	00 
  40285b:	76 59                	jbe    4028b6 <aloop+0x1be>
  40285d:	f3 0f 10 05 db 0a 00 	movss  0xadb(%rip),%xmm0        # 403340 <_ZZL18__gthread_active_pvE20__gthread_active_ptr+0x10>
  402864:	00 
  402865:	f3 0f 5c 45 bc       	subss  -0x44(%rbp),%xmm0
  40286a:	f3 0f 10 0d 06 0b 00 	movss  0xb06(%rip),%xmm1        # 403378 <_ZZL18__gthread_active_pvE20__gthread_active_ptr+0x48>
  402871:	00 
  402872:	f3 0f 59 c1          	mulss  %xmm1,%xmm0
  402876:	f3 0f 11 45 a8       	movss  %xmm0,-0x58(%rbp)
  40287b:	be 58 32 40 00       	mov    $0x403258,%esi
  402880:	bf a0 41 60 00       	mov    $0x6041a0,%edi
  402885:	e8 96 ea ff ff       	callq  401320 <_ZStlsISt11char_traitsIcEERSt13basic_ostreamIcT_ES5_PKc@plt>
  40288a:	f3 0f 10 45 a8       	movss  -0x58(%rbp),%xmm0
  40288f:	48 89 c7             	mov    %rax,%rdi
  402892:	e8 69 eb ff ff       	callq  401400 <_ZNSolsEf@plt>
  402897:	be 25 00 00 00       	mov    $0x25,%esi
  40289c:	48 89 c7             	mov    %rax,%rdi
  40289f:	e8 5c ea ff ff       	callq  401300 <_ZStlsISt11char_traitsIcEERSt13basic_ostreamIcT_ES5_c@plt>
  4028a4:	be 40 14 40 00       	mov    $0x401440,%esi
  4028a9:	48 89 c7             	mov    %rax,%rdi
  4028ac:	e8 5f eb ff ff       	callq  401410 <_ZNSolsEPFRSoS_E@plt>
  4028b1:	e9 81 00 00 00       	jmpq   402937 <aloop+0x23f>
  4028b6:	f3 0f 10 45 b8       	movss  -0x48(%rbp),%xmm0
  4028bb:	0f 5a c0             	cvtps2pd %xmm0,%xmm0
  4028be:	f2 0f 5c 45 c8       	subsd  -0x38(%rbp),%xmm0
  4028c3:	66 0f 2e 05 a5 0a 00 	ucomisd 0xaa5(%rip),%xmm0        # 403370 <_ZZL18__gthread_active_pvE20__gthread_active_ptr+0x40>
  4028ca:	00 
  4028cb:	76 4e                	jbe    40291b <aloop+0x223>
  4028cd:	be 82 32 40 00       	mov    $0x403282,%esi
  4028d2:	bf a0 41 60 00       	mov    $0x6041a0,%edi
  4028d7:	e8 44 ea ff ff       	callq  401320 <_ZStlsISt11char_traitsIcEERSt13basic_ostreamIcT_ES5_PKc@plt>
  4028dc:	48 89 c2             	mov    %rax,%rdx
  4028df:	8b 45 bc             	mov    -0x44(%rbp),%eax
  4028e2:	89 45 a8             	mov    %eax,-0x58(%rbp)
  4028e5:	f3 0f 10 45 a8       	movss  -0x58(%rbp),%xmm0
  4028ea:	48 89 d7             	mov    %rdx,%rdi
  4028ed:	e8 0e eb ff ff       	callq  401400 <_ZNSolsEf@plt>
  4028f2:	be 25 00 00 00       	mov    $0x25,%esi
  4028f7:	48 89 c7             	mov    %rax,%rdi
  4028fa:	e8 01 ea ff ff       	callq  401300 <_ZStlsISt11char_traitsIcEERSt13basic_ostreamIcT_ES5_c@plt>
  4028ff:	be a0 32 40 00       	mov    $0x4032a0,%esi
  402904:	48 89 c7             	mov    %rax,%rdi
  402907:	e8 14 ea ff ff       	callq  401320 <_ZStlsISt11char_traitsIcEERSt13basic_ostreamIcT_ES5_PKc@plt>
  40290c:	be 40 14 40 00       	mov    $0x401440,%esi
  402911:	48 89 c7             	mov    %rax,%rdi
  402914:	e8 f7 ea ff ff       	callq  401410 <_ZNSolsEPFRSoS_E@plt>
  402919:	eb 1c                	jmp    402937 <aloop+0x23f>
  40291b:	be c8 32 40 00       	mov    $0x4032c8,%esi
  402920:	bf a0 41 60 00       	mov    $0x6041a0,%edi
  402925:	e8 f6 e9 ff ff       	callq  401320 <_ZStlsISt11char_traitsIcEERSt13basic_ostreamIcT_ES5_PKc@plt>
  40292a:	be 40 14 40 00       	mov    $0x401440,%esi
  40292f:	48 89 c7             	mov    %rax,%rdi
  402932:	e8 d9 ea ff ff       	callq  401410 <_ZNSolsEPFRSoS_E@plt>
  402937:	be 40 14 40 00       	mov    $0x401440,%esi
  40293c:	bf a0 41 60 00       	mov    $0x6041a0,%edi
  402941:	e8 ca ea ff ff       	callq  401410 <_ZNSolsEPFRSoS_E@plt>
  402946:	be f0 13 40 00       	mov    $0x4013f0,%esi
  40294b:	48 89 c7             	mov    %rax,%rdi
  40294e:	e8 bd ea ff ff       	callq  401410 <_ZNSolsEPFRSoS_E@plt>
  402953:	8b 45 bc             	mov    -0x44(%rbp),%eax
  402956:	89 45 a8             	mov    %eax,-0x58(%rbp)
  402959:	f3 0f 10 45 a8       	movss  -0x58(%rbp),%xmm0
  40295e:	c9                   	leaveq 
  40295f:	c3                   	retq   

0000000000402960 <_Z41__static_initialization_and_destruction_0ii>:
  402960:	55                   	push   %rbp
  402961:	48 89 e5             	mov    %rsp,%rbp
  402964:	48 83 ec 10          	sub    $0x10,%rsp
  402968:	89 7d fc             	mov    %edi,-0x4(%rbp)
  40296b:	89 75 f8             	mov    %esi,-0x8(%rbp)
  40296e:	83 7d fc 01          	cmpl   $0x1,-0x4(%rbp)
  402972:	75 27                	jne    40299b <_Z41__static_initialization_and_destruction_0ii+0x3b>
  402974:	81 7d f8 ff ff 00 00 	cmpl   $0xffff,-0x8(%rbp)
  40297b:	75 1e                	jne    40299b <_Z41__static_initialization_and_destruction_0ii+0x3b>
  40297d:	bf c0 42 60 00       	mov    $0x6042c0,%edi
  402982:	e8 09 e9 ff ff       	callq  401290 <_ZNSt8ios_base4InitC1Ev@plt>
  402987:	ba f8 2f 40 00       	mov    $0x402ff8,%edx
  40298c:	be c0 42 60 00       	mov    $0x6042c0,%esi
  402991:	bf 10 13 40 00       	mov    $0x401310,%edi
  402996:	e8 35 e9 ff ff       	callq  4012d0 <__cxa_atexit@plt>
  40299b:	c9                   	leaveq 
  40299c:	c3                   	retq   

000000000040299d <_GLOBAL__sub_I_NB_lOOP>:
  40299d:	55                   	push   %rbp
  40299e:	48 89 e5             	mov    %rsp,%rbp
  4029a1:	be ff ff 00 00       	mov    $0xffff,%esi
  4029a6:	bf 01 00 00 00       	mov    $0x1,%edi
  4029ab:	e8 b0 ff ff ff       	callq  402960 <_Z41__static_initialization_and_destruction_0ii>
  4029b0:	5d                   	pop    %rbp
  4029b1:	c3                   	retq   

00000000004029b2 <_ZSt9to_stringd>:
  4029b2:	55                   	push   %rbp
  4029b3:	48 89 e5             	mov    %rsp,%rbp
  4029b6:	48 83 ec 30          	sub    $0x30,%rsp
  4029ba:	48 89 7d e8          	mov    %rdi,-0x18(%rbp)
  4029be:	f2 0f 11 45 e0       	movsd  %xmm0,-0x20(%rbp)
  4029c3:	c7 45 fc 48 01 00 00 	movl   $0x148,-0x4(%rbp)
  4029ca:	48 8b 7d e8          	mov    -0x18(%rbp),%rdi
  4029ce:	48 8b 45 e0          	mov    -0x20(%rbp),%rax
  4029d2:	48 89 45 d8          	mov    %rax,-0x28(%rbp)
  4029d6:	f2 0f 10 45 d8       	movsd  -0x28(%rbp),%xmm0
  4029db:	b9 01 30 40 00       	mov    $0x403001,%ecx
  4029e0:	ba 48 01 00 00       	mov    $0x148,%edx
  4029e5:	be b0 13 40 00       	mov    $0x4013b0,%esi
  4029ea:	b8 01 00 00 00       	mov    $0x1,%eax
  4029ef:	e8 1f 01 00 00       	callq  402b13 <_ZN9__gnu_cxx12__to_xstringISscEET_PFiPT0_mPKS2_P13__va_list_tagEmS5_z>
  4029f4:	48 8b 45 e8          	mov    -0x18(%rbp),%rax
  4029f8:	c9                   	leaveq 
  4029f9:	c3                   	retq   

00000000004029fa <_ZNSt8ios_base9precisionEl>:
  4029fa:	55                   	push   %rbp
  4029fb:	48 89 e5             	mov    %rsp,%rbp
  4029fe:	48 89 7d e8          	mov    %rdi,-0x18(%rbp)
  402a02:	48 89 75 e0          	mov    %rsi,-0x20(%rbp)
  402a06:	48 8b 45 e8          	mov    -0x18(%rbp),%rax
  402a0a:	48 8b 40 08          	mov    0x8(%rax),%rax
  402a0e:	48 89 45 f8          	mov    %rax,-0x8(%rbp)
  402a12:	48 8b 45 e8          	mov    -0x18(%rbp),%rax
  402a16:	48 8b 55 e0          	mov    -0x20(%rbp),%rdx
  402a1a:	48 89 50 08          	mov    %rdx,0x8(%rax)
  402a1e:	48 8b 45 f8          	mov    -0x8(%rbp),%rax
  402a22:	5d                   	pop    %rbp
  402a23:	c3                   	retq   

0000000000402a24 <_ZSt4setwi>:
  402a24:	55                   	push   %rbp
  402a25:	48 89 e5             	mov    %rsp,%rbp
  402a28:	89 7d fc             	mov    %edi,-0x4(%rbp)
  402a2b:	8b 45 fc             	mov    -0x4(%rbp),%eax
  402a2e:	5d                   	pop    %rbp
  402a2f:	c3                   	retq   

0000000000402a30 <_ZNSt4pairIidEC1Ev>:
  402a30:	55                   	push   %rbp
  402a31:	48 89 e5             	mov    %rsp,%rbp
  402a34:	48 89 7d f8          	mov    %rdi,-0x8(%rbp)
  402a38:	48 8b 45 f8          	mov    -0x8(%rbp),%rax
  402a3c:	c7 00 00 00 00 00    	movl   $0x0,(%rax)
  402a42:	48 8b 55 f8          	mov    -0x8(%rbp),%rdx
  402a46:	b8 00 00 00 00       	mov    $0x0,%eax
  402a4b:	48 89 42 08          	mov    %rax,0x8(%rdx)
  402a4f:	5d                   	pop    %rbp
  402a50:	c3                   	retq   

0000000000402a51 <_ZSt7forwardIyEOT_RNSt16remove_referenceIS0_E4typeE>:
  402a51:	55                   	push   %rbp
  402a52:	48 89 e5             	mov    %rsp,%rbp
  402a55:	48 89 7d f8          	mov    %rdi,-0x8(%rbp)
  402a59:	48 8b 45 f8          	mov    -0x8(%rbp),%rax
  402a5d:	5d                   	pop    %rbp
  402a5e:	c3                   	retq   

0000000000402a5f <_ZSt7forwardIdEOT_RNSt16remove_referenceIS0_E4typeE>:
  402a5f:	55                   	push   %rbp
  402a60:	48 89 e5             	mov    %rsp,%rbp
  402a63:	48 89 7d f8          	mov    %rdi,-0x8(%rbp)
  402a67:	48 8b 45 f8          	mov    -0x8(%rbp),%rax
  402a6b:	5d                   	pop    %rbp
  402a6c:	c3                   	retq   
  402a6d:	90                   	nop

0000000000402a6e <_ZNSt4pairIydEC1IydvEEOT_OT0_>:
  402a6e:	55                   	push   %rbp
  402a6f:	48 89 e5             	mov    %rsp,%rbp
  402a72:	48 83 ec 20          	sub    $0x20,%rsp
  402a76:	48 89 7d f8          	mov    %rdi,-0x8(%rbp)
  402a7a:	48 89 75 f0          	mov    %rsi,-0x10(%rbp)
  402a7e:	48 89 55 e8          	mov    %rdx,-0x18(%rbp)
  402a82:	48 8b 45 f0          	mov    -0x10(%rbp),%rax
  402a86:	48 89 c7             	mov    %rax,%rdi
  402a89:	e8 c3 ff ff ff       	callq  402a51 <_ZSt7forwardIyEOT_RNSt16remove_referenceIS0_E4typeE>
  402a8e:	48 8b 10             	mov    (%rax),%rdx
  402a91:	48 8b 45 f8          	mov    -0x8(%rbp),%rax
  402a95:	48 89 10             	mov    %rdx,(%rax)
  402a98:	48 8b 45 e8          	mov    -0x18(%rbp),%rax
  402a9c:	48 89 c7             	mov    %rax,%rdi
  402a9f:	e8 bb ff ff ff       	callq  402a5f <_ZSt7forwardIdEOT_RNSt16remove_referenceIS0_E4typeE>
  402aa4:	48 8b 00             	mov    (%rax),%rax
  402aa7:	48 8b 55 f8          	mov    -0x8(%rbp),%rdx
  402aab:	48 89 42 08          	mov    %rax,0x8(%rdx)
  402aaf:	c9                   	leaveq 
  402ab0:	c3                   	retq   

0000000000402ab1 <_ZSt9make_pairIydESt4pairINSt17__decay_and_stripIT_E6__typeENS1_IT0_E6__typeEEOS2_OS5_>:
  402ab1:	55                   	push   %rbp
  402ab2:	48 89 e5             	mov    %rsp,%rbp
  402ab5:	53                   	push   %rbx
  402ab6:	48 83 ec 38          	sub    $0x38,%rsp
  402aba:	48 89 7d d8          	mov    %rdi,-0x28(%rbp)
  402abe:	48 89 75 d0          	mov    %rsi,-0x30(%rbp)
  402ac2:	48 8b 45 d0          	mov    -0x30(%rbp),%rax
  402ac6:	48 89 c7             	mov    %rax,%rdi
  402ac9:	e8 91 ff ff ff       	callq  402a5f <_ZSt7forwardIdEOT_RNSt16remove_referenceIS0_E4typeE>
  402ace:	48 89 c3             	mov    %rax,%rbx
  402ad1:	48 8b 45 d8          	mov    -0x28(%rbp),%rax
  402ad5:	48 89 c7             	mov    %rax,%rdi
  402ad8:	e8 74 ff ff ff       	callq  402a51 <_ZSt7forwardIyEOT_RNSt16remove_referenceIS0_E4typeE>
  402add:	48 89 c1             	mov    %rax,%rcx
  402ae0:	48 8d 45 e0          	lea    -0x20(%rbp),%rax
  402ae4:	48 89 da             	mov    %rbx,%rdx
  402ae7:	48 89 ce             	mov    %rcx,%rsi
  402aea:	48 89 c7             	mov    %rax,%rdi
  402aed:	e8 7c ff ff ff       	callq  402a6e <_ZNSt4pairIydEC1IydvEEOT_OT0_>
  402af2:	48 8b 45 e0          	mov    -0x20(%rbp),%rax
  402af6:	48 8b 55 e8          	mov    -0x18(%rbp),%rdx
  402afa:	48 89 c1             	mov    %rax,%rcx
  402afd:	48 89 d3             	mov    %rdx,%rbx
  402b00:	48 89 c8             	mov    %rcx,%rax
  402b03:	48 89 55 c8          	mov    %rdx,-0x38(%rbp)
  402b07:	f2 0f 10 45 c8       	movsd  -0x38(%rbp),%xmm0
  402b0c:	48 83 c4 38          	add    $0x38,%rsp
  402b10:	5b                   	pop    %rbx
  402b11:	5d                   	pop    %rbp
  402b12:	c3                   	retq   

0000000000402b13 <_ZN9__gnu_cxx12__to_xstringISscEET_PFiPT0_mPKS2_P13__va_list_tagEmS5_z>:
  402b13:	55                   	push   %rbp
  402b14:	48 89 e5             	mov    %rsp,%rbp
  402b17:	53                   	push   %rbx
  402b18:	48 81 ec 08 01 00 00 	sub    $0x108,%rsp
  402b1f:	48 89 bd 08 ff ff ff 	mov    %rdi,-0xf8(%rbp)
  402b26:	48 89 b5 00 ff ff ff 	mov    %rsi,-0x100(%rbp)
  402b2d:	48 89 95 f8 fe ff ff 	mov    %rdx,-0x108(%rbp)
  402b34:	4c 89 85 60 ff ff ff 	mov    %r8,-0xa0(%rbp)
  402b3b:	4c 89 8d 68 ff ff ff 	mov    %r9,-0x98(%rbp)
  402b42:	84 c0                	test   %al,%al
  402b44:	74 23                	je     402b69 <_ZN9__gnu_cxx12__to_xstringISscEET_PFiPT0_mPKS2_P13__va_list_tagEmS5_z+0x56>
  402b46:	0f 29 85 70 ff ff ff 	movaps %xmm0,-0x90(%rbp)
  402b4d:	0f 29 4d 80          	movaps %xmm1,-0x80(%rbp)
  402b51:	0f 29 55 90          	movaps %xmm2,-0x70(%rbp)
  402b55:	0f 29 5d a0          	movaps %xmm3,-0x60(%rbp)
  402b59:	0f 29 65 b0          	movaps %xmm4,-0x50(%rbp)
  402b5d:	0f 29 6d c0          	movaps %xmm5,-0x40(%rbp)
  402b61:	0f 29 75 d0          	movaps %xmm6,-0x30(%rbp)
  402b65:	0f 29 7d e0          	movaps %xmm7,-0x20(%rbp)
  402b69:	48 89 8d f0 fe ff ff 	mov    %rcx,-0x110(%rbp)
  402b70:	48 8b 85 f8 fe ff ff 	mov    -0x108(%rbp),%rax
  402b77:	48 8d 50 0f          	lea    0xf(%rax),%rdx
  402b7b:	b8 10 00 00 00       	mov    $0x10,%eax
  402b80:	48 83 e8 01          	sub    $0x1,%rax
  402b84:	48 01 d0             	add    %rdx,%rax
  402b87:	bb 10 00 00 00       	mov    $0x10,%ebx
  402b8c:	ba 00 00 00 00       	mov    $0x0,%edx
  402b91:	48 f7 f3             	div    %rbx
  402b94:	48 6b c0 10          	imul   $0x10,%rax,%rax
  402b98:	48 29 c4             	sub    %rax,%rsp
  402b9b:	48 89 e0             	mov    %rsp,%rax
  402b9e:	48 83 c0 0f          	add    $0xf,%rax
  402ba2:	48 c1 e8 04          	shr    $0x4,%rax
  402ba6:	48 c1 e0 04          	shl    $0x4,%rax
  402baa:	48 89 85 38 ff ff ff 	mov    %rax,-0xc8(%rbp)
  402bb1:	c7 85 18 ff ff ff 20 	movl   $0x20,-0xe8(%rbp)
  402bb8:	00 00 00 
  402bbb:	c7 85 1c ff ff ff 30 	movl   $0x30,-0xe4(%rbp)
  402bc2:	00 00 00 
  402bc5:	48 8d 45 10          	lea    0x10(%rbp),%rax
  402bc9:	48 89 85 20 ff ff ff 	mov    %rax,-0xe0(%rbp)
  402bd0:	48 8d 85 40 ff ff ff 	lea    -0xc0(%rbp),%rax
  402bd7:	48 89 85 28 ff ff ff 	mov    %rax,-0xd8(%rbp)
  402bde:	48 8d 8d 18 ff ff ff 	lea    -0xe8(%rbp),%rcx
  402be5:	48 8b 95 f0 fe ff ff 	mov    -0x110(%rbp),%rdx
  402bec:	48 8b b5 f8 fe ff ff 	mov    -0x108(%rbp),%rsi
  402bf3:	48 8b bd 38 ff ff ff 	mov    -0xc8(%rbp),%rdi
  402bfa:	48 8b 85 00 ff ff ff 	mov    -0x100(%rbp),%rax
  402c01:	ff d0                	callq  *%rax
  402c03:	89 85 34 ff ff ff    	mov    %eax,-0xcc(%rbp)
  402c09:	48 8d 85 33 ff ff ff 	lea    -0xcd(%rbp),%rax
  402c10:	48 89 c7             	mov    %rax,%rdi
  402c13:	e8 48 e8 ff ff       	callq  401460 <_ZNSaIcEC1Ev@plt>
  402c18:	8b 85 34 ff ff ff    	mov    -0xcc(%rbp),%eax
  402c1e:	48 63 d0             	movslq %eax,%rdx
  402c21:	48 8b 85 38 ff ff ff 	mov    -0xc8(%rbp),%rax
  402c28:	48 8d 3c 02          	lea    (%rdx,%rax,1),%rdi
  402c2c:	48 8d 95 33 ff ff ff 	lea    -0xcd(%rbp),%rdx
  402c33:	48 8b b5 38 ff ff ff 	mov    -0xc8(%rbp),%rsi
  402c3a:	48 8b 85 08 ff ff ff 	mov    -0xf8(%rbp),%rax
  402c41:	48 89 d1             	mov    %rdx,%rcx
  402c44:	48 89 fa             	mov    %rdi,%rdx
  402c47:	48 89 c7             	mov    %rax,%rdi
  402c4a:	e8 83 00 00 00       	callq  402cd2 <_ZNSsC1IPcEET_S1_RKSaIcE>
  402c4f:	48 8d 85 33 ff ff ff 	lea    -0xcd(%rbp),%rax
  402c56:	48 89 c7             	mov    %rax,%rdi
  402c59:	e8 72 e7 ff ff       	callq  4013d0 <_ZNSaIcED1Ev@plt>
  402c5e:	eb 1d                	jmp    402c7d <_ZN9__gnu_cxx12__to_xstringISscEET_PFiPT0_mPKS2_P13__va_list_tagEmS5_z+0x16a>
  402c60:	48 89 c3             	mov    %rax,%rbx
  402c63:	48 8d 85 33 ff ff ff 	lea    -0xcd(%rbp),%rax
  402c6a:	48 89 c7             	mov    %rax,%rdi
  402c6d:	e8 5e e7 ff ff       	callq  4013d0 <_ZNSaIcED1Ev@plt>
  402c72:	48 89 d8             	mov    %rbx,%rax
  402c75:	48 89 c7             	mov    %rax,%rdi
  402c78:	e8 13 e8 ff ff       	callq  401490 <_Unwind_Resume@plt>
  402c7d:	48 8b 85 08 ff ff ff 	mov    -0xf8(%rbp),%rax
  402c84:	48 8b 5d f8          	mov    -0x8(%rbp),%rbx
  402c88:	c9                   	leaveq 
  402c89:	c3                   	retq   

0000000000402c8a <_ZNSt4pairIidEaSIydEERS0_OS_IT_T0_E>:
  402c8a:	55                   	push   %rbp
  402c8b:	48 89 e5             	mov    %rsp,%rbp
  402c8e:	48 83 ec 10          	sub    $0x10,%rsp
  402c92:	48 89 7d f8          	mov    %rdi,-0x8(%rbp)
  402c96:	48 89 75 f0          	mov    %rsi,-0x10(%rbp)
  402c9a:	48 8b 45 f0          	mov    -0x10(%rbp),%rax
  402c9e:	48 89 c7             	mov    %rax,%rdi
  402ca1:	e8 ab fd ff ff       	callq  402a51 <_ZSt7forwardIyEOT_RNSt16remove_referenceIS0_E4typeE>
  402ca6:	48 8b 00             	mov    (%rax),%rax
  402ca9:	89 c2                	mov    %eax,%edx
  402cab:	48 8b 45 f8          	mov    -0x8(%rbp),%rax
  402caf:	89 10                	mov    %edx,(%rax)
  402cb1:	48 8b 45 f0          	mov    -0x10(%rbp),%rax
  402cb5:	48 83 c0 08          	add    $0x8,%rax
  402cb9:	48 89 c7             	mov    %rax,%rdi
  402cbc:	e8 9e fd ff ff       	callq  402a5f <_ZSt7forwardIdEOT_RNSt16remove_referenceIS0_E4typeE>
  402cc1:	48 8b 00             	mov    (%rax),%rax
  402cc4:	48 8b 55 f8          	mov    -0x8(%rbp),%rdx
  402cc8:	48 89 42 08          	mov    %rax,0x8(%rdx)
  402ccc:	48 8b 45 f8          	mov    -0x8(%rbp),%rax
  402cd0:	c9                   	leaveq 
  402cd1:	c3                   	retq   

0000000000402cd2 <_ZNSsC1IPcEET_S1_RKSaIcE>:
  402cd2:	55                   	push   %rbp
  402cd3:	48 89 e5             	mov    %rsp,%rbp
  402cd6:	48 83 ec 20          	sub    $0x20,%rsp
  402cda:	48 89 7d f8          	mov    %rdi,-0x8(%rbp)
  402cde:	48 89 75 f0          	mov    %rsi,-0x10(%rbp)
  402ce2:	48 89 55 e8          	mov    %rdx,-0x18(%rbp)
  402ce6:	48 89 4d e0          	mov    %rcx,-0x20(%rbp)
  402cea:	48 8b 55 e0          	mov    -0x20(%rbp),%rdx
  402cee:	48 8b 4d e8          	mov    -0x18(%rbp),%rcx
  402cf2:	48 8b 45 f0          	mov    -0x10(%rbp),%rax
  402cf6:	48 89 ce             	mov    %rcx,%rsi
  402cf9:	48 89 c7             	mov    %rax,%rdi
  402cfc:	e8 18 00 00 00       	callq  402d19 <_ZNSs12_S_constructIPcEES0_T_S1_RKSaIcE>
  402d01:	48 89 c1             	mov    %rax,%rcx
  402d04:	48 8b 45 f8          	mov    -0x8(%rbp),%rax
  402d08:	48 8b 55 e0          	mov    -0x20(%rbp),%rdx
  402d0c:	48 89 ce             	mov    %rcx,%rsi
  402d0f:	48 89 c7             	mov    %rax,%rdi
  402d12:	e8 69 e7 ff ff       	callq  401480 <_ZNSs12_Alloc_hiderC1EPcRKSaIcE@plt>
  402d17:	c9                   	leaveq 
  402d18:	c3                   	retq   

0000000000402d19 <_ZNSs12_S_constructIPcEES0_T_S1_RKSaIcE>:
  402d19:	55                   	push   %rbp
  402d1a:	48 89 e5             	mov    %rsp,%rbp
  402d1d:	48 83 ec 30          	sub    $0x30,%rsp
  402d21:	48 89 7d e8          	mov    %rdi,-0x18(%rbp)
  402d25:	48 89 75 e0          	mov    %rsi,-0x20(%rbp)
  402d29:	48 89 55 d8          	mov    %rdx,-0x28(%rbp)
  402d2d:	48 8b 55 d8          	mov    -0x28(%rbp),%rdx
  402d31:	48 8b 4d e0          	mov    -0x20(%rbp),%rcx
  402d35:	48 8b 45 e8          	mov    -0x18(%rbp),%rax
  402d39:	44 88 04 24          	mov    %r8b,(%rsp)
  402d3d:	48 89 ce             	mov    %rcx,%rsi
  402d40:	48 89 c7             	mov    %rax,%rdi
  402d43:	e8 02 00 00 00       	callq  402d4a <_ZNSs16_S_construct_auxIPcEES0_T_S1_RKSaIcESt12__false_type>
  402d48:	c9                   	leaveq 
  402d49:	c3                   	retq   

0000000000402d4a <_ZNSs16_S_construct_auxIPcEES0_T_S1_RKSaIcESt12__false_type>:
  402d4a:	55                   	push   %rbp
  402d4b:	48 89 e5             	mov    %rsp,%rbp
  402d4e:	48 83 ec 30          	sub    $0x30,%rsp
  402d52:	48 89 7d e8          	mov    %rdi,-0x18(%rbp)
  402d56:	48 89 75 e0          	mov    %rsi,-0x20(%rbp)
  402d5a:	48 89 55 d8          	mov    %rdx,-0x28(%rbp)
  402d5e:	48 8b 55 d8          	mov    -0x28(%rbp),%rdx
  402d62:	48 8b 4d e0          	mov    -0x20(%rbp),%rcx
  402d66:	48 8b 45 e8          	mov    -0x18(%rbp),%rax
  402d6a:	44 88 04 24          	mov    %r8b,(%rsp)
  402d6e:	48 89 ce             	mov    %rcx,%rsi
  402d71:	48 89 c7             	mov    %rax,%rdi
  402d74:	e8 03 00 00 00       	callq  402d7c <_ZNSs12_S_constructIPcEES0_T_S1_RKSaIcESt20forward_iterator_tag>
  402d79:	c9                   	leaveq 
  402d7a:	c3                   	retq   
  402d7b:	90                   	nop

0000000000402d7c <_ZNSs12_S_constructIPcEES0_T_S1_RKSaIcESt20forward_iterator_tag>:
  402d7c:	55                   	push   %rbp
  402d7d:	48 89 e5             	mov    %rsp,%rbp
  402d80:	41 54                	push   %r12
  402d82:	53                   	push   %rbx
  402d83:	48 83 ec 40          	sub    $0x40,%rsp
  402d87:	48 89 7d c8          	mov    %rdi,-0x38(%rbp)
  402d8b:	48 89 75 c0          	mov    %rsi,-0x40(%rbp)
  402d8f:	48 89 55 b8          	mov    %rdx,-0x48(%rbp)
  402d93:	bb 00 00 00 00       	mov    $0x0,%ebx
  402d98:	48 8b 45 c8          	mov    -0x38(%rbp),%rax
  402d9c:	48 3b 45 c0          	cmp    -0x40(%rbp),%rax
  402da0:	75 2f                	jne    402dd1 <_ZNSs12_S_constructIPcEES0_T_S1_RKSaIcESt20forward_iterator_tag+0x55>
  402da2:	48 8d 45 df          	lea    -0x21(%rbp),%rax
  402da6:	48 89 c7             	mov    %rax,%rdi
  402da9:	e8 b2 e6 ff ff       	callq  401460 <_ZNSaIcEC1Ev@plt>
  402dae:	bb 01 00 00 00       	mov    $0x1,%ebx
  402db3:	48 8d 55 df          	lea    -0x21(%rbp),%rdx
  402db7:	48 8b 45 b8          	mov    -0x48(%rbp),%rax
  402dbb:	48 89 d6             	mov    %rdx,%rsi
  402dbe:	48 89 c7             	mov    %rax,%rdi
  402dc1:	e8 1b 01 00 00       	callq  402ee1 <_ZSteqIcEbRKSaIT_ES3_>
  402dc6:	84 c0                	test   %al,%al
  402dc8:	74 07                	je     402dd1 <_ZNSs12_S_constructIPcEES0_T_S1_RKSaIcESt20forward_iterator_tag+0x55>
  402dca:	b8 01 00 00 00       	mov    $0x1,%eax
  402dcf:	eb 05                	jmp    402dd6 <_ZNSs12_S_constructIPcEES0_T_S1_RKSaIcESt20forward_iterator_tag+0x5a>
  402dd1:	b8 00 00 00 00       	mov    $0x0,%eax
  402dd6:	41 89 c4             	mov    %eax,%r12d
  402dd9:	84 db                	test   %bl,%bl
  402ddb:	74 0d                	je     402dea <_ZNSs12_S_constructIPcEES0_T_S1_RKSaIcESt20forward_iterator_tag+0x6e>
  402ddd:	90                   	nop
  402dde:	48 8d 45 df          	lea    -0x21(%rbp),%rax
  402de2:	48 89 c7             	mov    %rax,%rdi
  402de5:	e8 e6 e5 ff ff       	callq  4013d0 <_ZNSaIcED1Ev@plt>
  402dea:	45 84 e4             	test   %r12b,%r12b
  402ded:	74 12                	je     402e01 <_ZNSs12_S_constructIPcEES0_T_S1_RKSaIcESt20forward_iterator_tag+0x85>
  402def:	e8 ac e6 ff ff       	callq  4014a0 <_ZNSs12_S_empty_repEv@plt>
  402df4:	48 89 c7             	mov    %rax,%rdi
  402df7:	e8 a4 e4 ff ff       	callq  4012a0 <_ZNSs4_Rep10_M_refdataEv@plt>
  402dfc:	e9 d7 00 00 00       	jmpq   402ed8 <_ZNSs12_S_constructIPcEES0_T_S1_RKSaIcESt20forward_iterator_tag+0x15c>
  402e01:	48 8b 45 c8          	mov    -0x38(%rbp),%rax
  402e05:	48 89 c7             	mov    %rax,%rdi
  402e08:	e8 e7 00 00 00       	callq  402ef4 <_ZN9__gnu_cxx17__is_null_pointerIcEEbPT_>
  402e0d:	84 c0                	test   %al,%al
  402e0f:	74 11                	je     402e22 <_ZNSs12_S_constructIPcEES0_T_S1_RKSaIcESt20forward_iterator_tag+0xa6>
  402e11:	48 8b 45 c8          	mov    -0x38(%rbp),%rax
  402e15:	48 3b 45 c0          	cmp    -0x40(%rbp),%rax
  402e19:	74 07                	je     402e22 <_ZNSs12_S_constructIPcEES0_T_S1_RKSaIcESt20forward_iterator_tag+0xa6>
  402e1b:	b8 01 00 00 00       	mov    $0x1,%eax
  402e20:	eb 05                	jmp    402e27 <_ZNSs12_S_constructIPcEES0_T_S1_RKSaIcESt20forward_iterator_tag+0xab>
  402e22:	b8 00 00 00 00       	mov    $0x0,%eax
  402e27:	84 c0                	test   %al,%al
  402e29:	74 0a                	je     402e35 <_ZNSs12_S_constructIPcEES0_T_S1_RKSaIcESt20forward_iterator_tag+0xb9>
  402e2b:	bf 00 33 40 00       	mov    $0x403300,%edi
  402e30:	e8 ab e5 ff ff       	callq  4013e0 <_ZSt19__throw_logic_errorPKc@plt>
  402e35:	48 8b 55 c0          	mov    -0x40(%rbp),%rdx
  402e39:	48 8b 45 c8          	mov    -0x38(%rbp),%rax
  402e3d:	48 89 d6             	mov    %rdx,%rsi
  402e40:	48 89 c7             	mov    %rax,%rdi
  402e43:	e8 be 00 00 00       	callq  402f06 <_ZSt8distanceIPcENSt15iterator_traitsIT_E15difference_typeES2_S2_>
  402e48:	48 89 45 e8          	mov    %rax,-0x18(%rbp)
  402e4c:	48 8b 55 b8          	mov    -0x48(%rbp),%rdx
  402e50:	48 8b 45 e8          	mov    -0x18(%rbp),%rax
  402e54:	be 00 00 00 00       	mov    $0x0,%esi
  402e59:	48 89 c7             	mov    %rax,%rdi
  402e5c:	e8 5f e4 ff ff       	callq  4012c0 <_ZNSs4_Rep9_S_createEmmRKSaIcE@plt>
  402e61:	48 89 45 e0          	mov    %rax,-0x20(%rbp)
  402e65:	48 8b 45 e0          	mov    -0x20(%rbp),%rax
  402e69:	48 89 c7             	mov    %rax,%rdi
  402e6c:	e8 2f e4 ff ff       	callq  4012a0 <_ZNSs4_Rep10_M_refdataEv@plt>
  402e71:	48 8b 55 c0          	mov    -0x40(%rbp),%rdx
  402e75:	48 8b 4d c8          	mov    -0x38(%rbp),%rcx
  402e79:	48 89 ce             	mov    %rcx,%rsi
  402e7c:	48 89 c7             	mov    %rax,%rdi
  402e7f:	e8 5c e4 ff ff       	callq  4012e0 <_ZNSs13_S_copy_charsEPcS_S_@plt>
  402e84:	48 8b 55 e8          	mov    -0x18(%rbp),%rdx
  402e88:	48 8b 45 e0          	mov    -0x20(%rbp),%rax
  402e8c:	48 89 d6             	mov    %rdx,%rsi
  402e8f:	48 89 c7             	mov    %rax,%rdi
  402e92:	e8 19 e6 ff ff       	callq  4014b0 <_ZNSs4_Rep26_M_set_length_and_sharableEm@plt>
  402e97:	48 8b 45 e0          	mov    -0x20(%rbp),%rax
  402e9b:	48 89 c7             	mov    %rax,%rdi
  402e9e:	e8 fd e3 ff ff       	callq  4012a0 <_ZNSs4_Rep10_M_refdataEv@plt>
  402ea3:	eb 33                	jmp    402ed8 <_ZNSs12_S_constructIPcEES0_T_S1_RKSaIcESt20forward_iterator_tag+0x15c>
  402ea5:	48 89 c7             	mov    %rax,%rdi
  402ea8:	e8 a3 e5 ff ff       	callq  401450 <__cxa_begin_catch@plt>
  402ead:	48 8b 55 b8          	mov    -0x48(%rbp),%rdx
  402eb1:	48 8b 45 e0          	mov    -0x20(%rbp),%rax
  402eb5:	48 89 d6             	mov    %rdx,%rsi
  402eb8:	48 89 c7             	mov    %rax,%rdi
  402ebb:	e8 80 e4 ff ff       	callq  401340 <_ZNSs4_Rep10_M_destroyERKSaIcE@plt>
  402ec0:	e8 bb e3 ff ff       	callq  401280 <__cxa_rethrow@plt>
  402ec5:	48 89 c3             	mov    %rax,%rbx
  402ec8:	e8 63 e5 ff ff       	callq  401430 <__cxa_end_catch@plt>
  402ecd:	48 89 d8             	mov    %rbx,%rax
  402ed0:	48 89 c7             	mov    %rax,%rdi
  402ed3:	e8 b8 e5 ff ff       	callq  401490 <_Unwind_Resume@plt>
  402ed8:	48 83 c4 40          	add    $0x40,%rsp
  402edc:	5b                   	pop    %rbx
  402edd:	41 5c                	pop    %r12
  402edf:	5d                   	pop    %rbp
  402ee0:	c3                   	retq   

0000000000402ee1 <_ZSteqIcEbRKSaIT_ES3_>:
  402ee1:	55                   	push   %rbp
  402ee2:	48 89 e5             	mov    %rsp,%rbp
  402ee5:	48 89 7d f8          	mov    %rdi,-0x8(%rbp)
  402ee9:	48 89 75 f0          	mov    %rsi,-0x10(%rbp)
  402eed:	b8 01 00 00 00       	mov    $0x1,%eax
  402ef2:	5d                   	pop    %rbp
  402ef3:	c3                   	retq   

0000000000402ef4 <_ZN9__gnu_cxx17__is_null_pointerIcEEbPT_>:
  402ef4:	55                   	push   %rbp
  402ef5:	48 89 e5             	mov    %rsp,%rbp
  402ef8:	48 89 7d f8          	mov    %rdi,-0x8(%rbp)
  402efc:	48 83 7d f8 00       	cmpq   $0x0,-0x8(%rbp)
  402f01:	0f 94 c0             	sete   %al
  402f04:	5d                   	pop    %rbp
  402f05:	c3                   	retq   

0000000000402f06 <_ZSt8distanceIPcENSt15iterator_traitsIT_E15difference_typeES2_S2_>:
  402f06:	55                   	push   %rbp
  402f07:	48 89 e5             	mov    %rsp,%rbp
  402f0a:	53                   	push   %rbx
  402f0b:	48 83 ec 38          	sub    $0x38,%rsp
  402f0f:	48 89 7d d8          	mov    %rdi,-0x28(%rbp)
  402f13:	48 89 75 d0          	mov    %rsi,-0x30(%rbp)
  402f17:	48 8d 45 d8          	lea    -0x28(%rbp),%rax
  402f1b:	48 89 c7             	mov    %rax,%rdi
  402f1e:	e8 1d 00 00 00       	callq  402f40 <_ZSt19__iterator_categoryIPcENSt15iterator_traitsIT_E17iterator_categoryERKS2_>
  402f23:	48 8b 45 d8          	mov    -0x28(%rbp),%rax
  402f27:	48 8b 55 d0          	mov    -0x30(%rbp),%rdx
  402f2b:	88 1c 24             	mov    %bl,(%rsp)
  402f2e:	48 89 d6             	mov    %rdx,%rsi
  402f31:	48 89 c7             	mov    %rax,%rdi
  402f34:	e8 11 00 00 00       	callq  402f4a <_ZSt10__distanceIPcENSt15iterator_traitsIT_E15difference_typeES2_S2_St26random_access_iterator_tag>
  402f39:	48 83 c4 38          	add    $0x38,%rsp
  402f3d:	5b                   	pop    %rbx
  402f3e:	5d                   	pop    %rbp
  402f3f:	c3                   	retq   

0000000000402f40 <_ZSt19__iterator_categoryIPcENSt15iterator_traitsIT_E17iterator_categoryERKS2_>:
  402f40:	55                   	push   %rbp
  402f41:	48 89 e5             	mov    %rsp,%rbp
  402f44:	48 89 7d f8          	mov    %rdi,-0x8(%rbp)
  402f48:	5d                   	pop    %rbp
  402f49:	c3                   	retq   

0000000000402f4a <_ZSt10__distanceIPcENSt15iterator_traitsIT_E15difference_typeES2_S2_St26random_access_iterator_tag>:
  402f4a:	55                   	push   %rbp
  402f4b:	48 89 e5             	mov    %rsp,%rbp
  402f4e:	48 89 7d f8          	mov    %rdi,-0x8(%rbp)
  402f52:	48 89 75 f0          	mov    %rsi,-0x10(%rbp)
  402f56:	48 8b 55 f0          	mov    -0x10(%rbp),%rdx
  402f5a:	48 8b 45 f8          	mov    -0x8(%rbp),%rax
  402f5e:	48 29 c2             	sub    %rax,%rdx
  402f61:	48 89 d0             	mov    %rdx,%rax
  402f64:	5d                   	pop    %rbp
  402f65:	c3                   	retq   
  402f66:	66 2e 0f 1f 84 00 00 	nopw   %cs:0x0(%rax,%rax,1)
  402f6d:	00 00 00 

0000000000402f70 <__libc_csu_init>:
  402f70:	41 57                	push   %r15
  402f72:	41 89 ff             	mov    %edi,%r15d
  402f75:	41 56                	push   %r14
  402f77:	49 89 f6             	mov    %rsi,%r14
  402f7a:	41 55                	push   %r13
  402f7c:	49 89 d5             	mov    %rdx,%r13
  402f7f:	41 54                	push   %r12
  402f81:	4c 8d 25 50 0e 20 00 	lea    0x200e50(%rip),%r12        # 603dd8 <__frame_dummy_init_array_entry>
  402f88:	55                   	push   %rbp
  402f89:	48 8d 2d 58 0e 20 00 	lea    0x200e58(%rip),%rbp        # 603de8 <__init_array_end>
  402f90:	53                   	push   %rbx
  402f91:	4c 29 e5             	sub    %r12,%rbp
  402f94:	31 db                	xor    %ebx,%ebx
  402f96:	48 c1 fd 03          	sar    $0x3,%rbp
  402f9a:	48 83 ec 08          	sub    $0x8,%rsp
  402f9e:	e8 5d e2 ff ff       	callq  401200 <_init>
  402fa3:	48 85 ed             	test   %rbp,%rbp
  402fa6:	74 1e                	je     402fc6 <__libc_csu_init+0x56>
  402fa8:	0f 1f 84 00 00 00 00 	nopl   0x0(%rax,%rax,1)
  402faf:	00 
  402fb0:	4c 89 ea             	mov    %r13,%rdx
  402fb3:	4c 89 f6             	mov    %r14,%rsi
  402fb6:	44 89 ff             	mov    %r15d,%edi
  402fb9:	41 ff 14 dc          	callq  *(%r12,%rbx,8)
  402fbd:	48 83 c3 01          	add    $0x1,%rbx
  402fc1:	48 39 eb             	cmp    %rbp,%rbx
  402fc4:	75 ea                	jne    402fb0 <__libc_csu_init+0x40>
  402fc6:	48 83 c4 08          	add    $0x8,%rsp
  402fca:	5b                   	pop    %rbx
  402fcb:	5d                   	pop    %rbp
  402fcc:	41 5c                	pop    %r12
  402fce:	41 5d                	pop    %r13
  402fd0:	41 5e                	pop    %r14
  402fd2:	41 5f                	pop    %r15
  402fd4:	c3                   	retq   
  402fd5:	90                   	nop
  402fd6:	66 2e 0f 1f 84 00 00 	nopw   %cs:0x0(%rax,%rax,1)
  402fdd:	00 00 00 

0000000000402fe0 <__libc_csu_fini>:
  402fe0:	f3 c3                	repz retq 

Disassembly of section .fini:

0000000000402fe4 <_fini>:
  402fe4:	48 83 ec 08          	sub    $0x8,%rsp
  402fe8:	48 83 c4 08          	add    $0x8,%rsp
  402fec:	c3                   	retq   
